
C3_Simple_socket_server.elf:     file format elf32-littlenios2
C3_Simple_socket_server.elf
architecture: nios2, flags 0x00000112:
EXEC_P, HAS_SYMS, D_PAGED
start address 0x0d0002bc

Program Header:
    LOAD off    0x00001000 vaddr 0x09500000 paddr 0x09500000 align 2**12
         filesz 0x00000000 memsz 0x00000000 flags r-x
    LOAD off    0x00001120 vaddr 0x0d000120 paddr 0x0d000120 align 2**12
         filesz 0x000528bc memsz 0x0005d4fc flags rwx

Sections:
Idx Name          Size      VMA       LMA       File off  Algn
  0 .entry        00000000  09500000  09500000  00001000  2**5
                  CONTENTS, ALLOC, LOAD, READONLY, CODE
  1 .exceptions   0000019c  0d000120  0d000120  00001120  2**2
                  CONTENTS, ALLOC, LOAD, READONLY, CODE
  2 .text         0004a598  0d0002bc  0d0002bc  000012bc  2**2
                  CONTENTS, ALLOC, LOAD, READONLY, CODE
  3 .rodata       00006054  0d04a854  0d04a854  0004b854  2**2
                  CONTENTS, ALLOC, LOAD, READONLY, DATA
  4 .rwdata       00002134  0d0508a8  0d0508a8  000518a8  2**2
                  CONTENTS, ALLOC, LOAD, DATA, SMALL_DATA
  5 .bss          0000ac40  0d0529dc  0d0529dc  000539dc  2**2
                  ALLOC, SMALL_DATA
  6 .comment      00000023  00000000  00000000  000539dc  2**0
                  CONTENTS, READONLY
  7 .debug_aranges 00001a70  00000000  00000000  00053a00  2**3
                  CONTENTS, READONLY, DEBUGGING
  8 .debug_pubnames 00005a08  00000000  00000000  00055470  2**0
                  CONTENTS, READONLY, DEBUGGING
  9 .debug_info   0008174c  00000000  00000000  0005ae78  2**0
                  CONTENTS, READONLY, DEBUGGING
 10 .debug_abbrev 00011d90  00000000  00000000  000dc5c4  2**0
                  CONTENTS, READONLY, DEBUGGING
 11 .debug_line   00041d6f  00000000  00000000  000ee354  2**0
                  CONTENTS, READONLY, DEBUGGING
 12 .debug_frame  00006840  00000000  00000000  001300c4  2**2
                  CONTENTS, READONLY, DEBUGGING
 13 .debug_str    00003926  00000000  00000000  00136904  2**0
                  CONTENTS, READONLY, DEBUGGING
 14 .debug_loc    00014036  00000000  00000000  0013a22a  2**0
                  CONTENTS, READONLY, DEBUGGING
 15 .debug_alt_sim_info 00000050  00000000  00000000  0014e260  2**2
                  CONTENTS, READONLY, DEBUGGING
 16 .debug_ranges 00000988  00000000  00000000  0014e2b0  2**3
                  CONTENTS, READONLY, DEBUGGING
 17 .thread_model 00000006  00000000  00000000  00159765  2**0
                  CONTENTS, READONLY
 18 .cpu          00000003  00000000  00000000  0015976b  2**0
                  CONTENTS, READONLY
 19 .simulation_enabled 00000001  00000000  00000000  0015976e  2**0
                  CONTENTS, READONLY
 20 .sysid_hash   00000004  00000000  00000000  0015976f  2**0
                  CONTENTS, READONLY
 21 .sysid_base   00000004  00000000  00000000  00159773  2**0
                  CONTENTS, READONLY
 22 .sysid_time   00000004  00000000  00000000  00159777  2**0
                  CONTENTS, READONLY
 23 .stderr_dev   00000009  00000000  00000000  0015977b  2**0
                  CONTENTS, READONLY
 24 .stdin_dev    00000009  00000000  00000000  00159784  2**0
                  CONTENTS, READONLY
 25 .stdout_dev   00000009  00000000  00000000  0015978d  2**0
                  CONTENTS, READONLY
 26 .sopc_system_name 00000010  00000000  00000000  00159796  2**0
                  CONTENTS, READONLY
 27 .quartus_project_dir 0000004f  00000000  00000000  001597a6  2**0
                  CONTENTS, READONLY
 28 .jdi          0000866e  00000000  00000000  001597f5  2**0
                  CONTENTS, READONLY
SYMBOL TABLE:
09500000 l    d  .entry	00000000 .entry
0d000120 l    d  .exceptions	00000000 .exceptions
0d0002bc l    d  .text	00000000 .text
0d04a854 l    d  .rodata	00000000 .rodata
0d0508a8 l    d  .rwdata	00000000 .rwdata
0d0529dc l    d  .bss	00000000 .bss
00000000 l    d  .comment	00000000 .comment
00000000 l    d  .debug_aranges	00000000 .debug_aranges
00000000 l    d  .debug_pubnames	00000000 .debug_pubnames
00000000 l    d  .debug_info	00000000 .debug_info
00000000 l    d  .debug_abbrev	00000000 .debug_abbrev
00000000 l    d  .debug_line	00000000 .debug_line
00000000 l    d  .debug_frame	00000000 .debug_frame
00000000 l    d  .debug_str	00000000 .debug_str
00000000 l    d  .debug_loc	00000000 .debug_loc
00000000 l    d  .debug_alt_sim_info	00000000 .debug_alt_sim_info
00000000 l    d  .debug_ranges	00000000 .debug_ranges
0d000300 l       .text	00000000 alt_after_alt_main
00000000 l    df *ABS*	00000000 alt_irq_handler.c
00000000 l    df *ABS*	00000000 alt_error_handler.c
00000000 l    df *ABS*	00000000 iniche_init.c
00000000 l    df *ABS*	00000000 led.c
00000000 l    df *ABS*	00000000 network_utilities.c
00000000 l    df *ABS*	00000000 simple_socket_server.c
0d0529e8 l     O .bss	00000004 SSSCommand.4583
0d052bf8 l     O .bss	000005f0 conn.4710
00000000 l    df *ABS*	00000000 tse_my_system.c
00000000 l    df *ABS*	00000000 ctype_.c
0d04ba7d l     O .rodata	00000180 _ctype_b
00000000 l    df *ABS*	00000000 fprintf.c
00000000 l    df *ABS*	00000000 fwrite.c
00000000 l    df *ABS*	00000000 getc.c
00000000 l    df *ABS*	00000000 impure.c
0d0509e0 l     O .rwdata	00000400 impure_data
00000000 l    df *ABS*	00000000 memcpy.c
00000000 l    df *ABS*	00000000 memmove.c
00000000 l    df *ABS*	00000000 memset.c
00000000 l    df *ABS*	00000000 perror.c
00000000 l    df *ABS*	00000000 printf.c
00000000 l    df *ABS*	00000000 putc.c
00000000 l    df *ABS*	00000000 putchar.c
00000000 l    df *ABS*	00000000 puts.c
00000000 l    df *ABS*	00000000 rget.c
00000000 l    df *ABS*	00000000 sprintf.c
00000000 l    df *ABS*	00000000 strchr.c
00000000 l    df *ABS*	00000000 strerror.c
00000000 l    df *ABS*	00000000 strlen.c
00000000 l    df *ABS*	00000000 u_strerr.c
00000000 l    df *ABS*	00000000 vfprintf.c
0d0035d8 l     F .text	00000058 __sprint_r
0d04c41e l     O .rodata	00000010 blanks.3452
0d04c40e l     O .rodata	00000010 zeroes.3453
00000000 l    df *ABS*	00000000 wbuf.c
00000000 l    df *ABS*	00000000 wsetup.c
00000000 l    df *ABS*	00000000 dtoa.c
0d005788 l     F .text	00000218 quorem
00000000 l    df *ABS*	00000000 fflush.c
00000000 l    df *ABS*	00000000 findfp.c
0d007184 l     F .text	00000058 std
0d007290 l     F .text	00000008 __fp_lock
0d007298 l     F .text	00000008 __fp_unlock
00000000 l    df *ABS*	00000000 fputc.c
00000000 l    df *ABS*	00000000 fputs.c
00000000 l    df *ABS*	00000000 mallocr.c
00000000 l    df *ABS*	00000000 fvwrite.c
00000000 l    df *ABS*	00000000 fwalk.c
00000000 l    df *ABS*	00000000 locale.c
0d052894 l     O .rwdata	00000004 charset
0d04c450 l     O .rodata	00000030 lconv
00000000 l    df *ABS*	00000000 makebuf.c
00000000 l    df *ABS*	00000000 mallocr.c
00000000 l    df *ABS*	00000000 memchr.c
00000000 l    df *ABS*	00000000 mprec.c
0d04c598 l     O .rodata	0000000c p05.2458
00000000 l    df *ABS*	00000000 mallocr.c
00000000 l    df *ABS*	00000000 refill.c
0d00a214 l     F .text	0000001c lflush
00000000 l    df *ABS*	00000000 s_isinfd.c
00000000 l    df *ABS*	00000000 s_isnand.c
00000000 l    df *ABS*	00000000 sbrkr.c
00000000 l    df *ABS*	00000000 stdio.c
00000000 l    df *ABS*	00000000 strcmp.c
00000000 l    df *ABS*	00000000 writer.c
00000000 l    df *ABS*	00000000 mallocr.c
00000000 l    df *ABS*	00000000 closer.c
00000000 l    df *ABS*	00000000 fclose.c
00000000 l    df *ABS*	00000000 fstatr.c
00000000 l    df *ABS*	00000000 int_errno.c
00000000 l    df *ABS*	00000000 isattyr.c
00000000 l    df *ABS*	00000000 lseekr.c
00000000 l    df *ABS*	00000000 readr.c
00000000 l    df *ABS*	00000000 libgcc2.c
00000000 l    df *ABS*	00000000 libgcc2.c
00000000 l    df *ABS*	00000000 dp-bit.c
0d00b538 l     F .text	00000410 _fpadd_parts
00000000 l    df *ABS*	00000000 dp-bit.c
00000000 l    df *ABS*	00000000 dp-bit.c
00000000 l    df *ABS*	00000000 dp-bit.c
00000000 l    df *ABS*	00000000 dp-bit.c
00000000 l    df *ABS*	00000000 dp-bit.c
00000000 l    df *ABS*	00000000 dp-bit.c
00000000 l    df *ABS*	00000000 dp-bit.c
00000000 l    df *ABS*	00000000 dp-bit.c
00000000 l    df *ABS*	00000000 dp-bit.c
00000000 l    df *ABS*	00000000 dp-bit.c
00000000 l    df *ABS*	00000000 dp-bit.c
00000000 l    df *ABS*	00000000 lib2-divmod.c
0d00c664 l     F .text	0000007c udivmodsi4
00000000 l    df *ABS*	00000000 libgcc2.c
00000000 l    df *ABS*	00000000 libgcc2.c
00000000 l    df *ABS*	00000000 libgcc2.c
00000000 l    df *ABS*	00000000 dp-bit.c
00000000 l    df *ABS*	00000000 dp-bit.c
00000000 l    df *ABS*	00000000 dp-bit.c
00000000 l    df *ABS*	00000000 alt_flash_dev.c
00000000 l    df *ABS*	00000000 alt_fstat.c
0d00cf80 l     F .text	00000060 alt_get_errno
00000000 l    df *ABS*	00000000 alt_isatty.c
0d00d0a0 l     F .text	00000060 alt_get_errno
00000000 l    df *ABS*	00000000 alt_lseek.c
0d00d1f0 l     F .text	00000060 alt_get_errno
00000000 l    df *ABS*	00000000 alt_main.c
00000000 l    df *ABS*	00000000 alt_sbrk.c
0d0528a8 l     O .rwdata	00000004 heap_end
00000000 l    df *ABS*	00000000 alt_env_lock.c
0d0528ac l     O .rwdata	00000004 lockid
0d052a20 l     O .bss	00000004 locks
00000000 l    df *ABS*	00000000 alt_malloc_lock.c
0d0528b0 l     O .rwdata	00000004 lockid
0d052a28 l     O .bss	00000004 locks
00000000 l    df *ABS*	00000000 os_core.c
0d00edac l     F .text	00000044 OS_InitMisc
0d00edf0 l     F .text	0000006c OS_InitRdyList
0d00ef54 l     F .text	000000e0 OS_InitTCBList
0d00ecd0 l     F .text	000000dc OS_InitEventList
0d00ee5c l     F .text	0000007c OS_InitTaskIdle
0d00eed8 l     F .text	0000007c OS_InitTaskStat
0d00f1c8 l     F .text	00000070 OS_SchedNew
00000000 l    df *ABS*	00000000 os_dbg.c
00000000 l    df *ABS*	00000000 os_flag.c
0d0110e8 l     F .text	00000110 OS_FlagTaskRdy
0d010e40 l     F .text	000001c4 OS_FlagBlock
00000000 l    df *ABS*	00000000 os_mem.c
00000000 l    df *ABS*	00000000 os_q.c
00000000 l    df *ABS*	00000000 os_sem.c
00000000 l    df *ABS*	00000000 os_task.c
00000000 l    df *ABS*	00000000 os_time.c
00000000 l    df *ABS*	00000000 alt_sys_init.c
0d0511f4 l     O .rwdata	000000d8 ext_flash
0d0512cc l     O .rwdata	0000106c jtag_uart
0d052338 l     O .rwdata	00000124 tristate_lcd
0d05245c l     O .rwdata	00000030 sgdma_rx
0d05248c l     O .rwdata	00000030 sgdma_tx
0d015c24 l     F .text	00000038 alt_dev_reg
00000000 l    df *ABS*	00000000 altera_avalon_cfi_flash.c
0d015cf8 l     F .text	00000038 alt_flash_device_register
00000000 l    df *ABS*	00000000 altera_avalon_cfi_flash_table.c
0d016af8 l     F .text	0000007c alt_read_16bit_query_entry
00000000 l    df *ABS*	00000000 altera_avalon_jtag_uart_fd.c
00000000 l    df *ABS*	00000000 altera_avalon_jtag_uart_init.c
0d017bfc l     F .text	000002c4 altera_avalon_jtag_uart_irq
0d017ec0 l     F .text	00000114 altera_avalon_jtag_uart_timeout
00000000 l    df *ABS*	00000000 altera_avalon_jtag_uart_ioctl.c
00000000 l    df *ABS*	00000000 altera_avalon_jtag_uart_read.c
00000000 l    df *ABS*	00000000 altera_avalon_jtag_uart_write.c
00000000 l    df *ABS*	00000000 altera_avalon_lcd_16207.c
0d05292c l     O .rwdata	00000004 colstart
0d0186d8 l     F .text	000000b8 lcd_write_command
0d018790 l     F .text	000000d4 lcd_write_data
0d018864 l     F .text	000000c4 lcd_clear_screen
0d018928 l     F .text	000001ec lcd_repaint_screen
0d018b14 l     F .text	000000c8 lcd_scroll_up
0d018bdc l     F .text	000002d0 lcd_handle_escape
0d0193dc l     F .text	000000cc alt_lcd_16207_timeout
00000000 l    df *ABS*	00000000 altera_avalon_lcd_16207_fd.c
00000000 l    df *ABS*	00000000 altera_avalon_sgdma.c
0d019d34 l     F .text	00000060 alt_get_errno
0d01a2dc l     F .text	000000c0 alt_avalon_sgdma_irq
00000000 l    df *ABS*	00000000 altera_avalon_timer_sc.c
0d01a448 l     F .text	00000070 alt_avalon_timer_sc_irq
00000000 l    df *ABS*	00000000 altera_avalon_tse.c
0d052a82 l     O .bss	00000001 tse_system_count.4487
0d052a83 l     O .bss	00000001 is_init.4851
00000000 l    df *ABS*	00000000 ins_tse_mac.c
00000000 l    df *ABS*	00000000 alt_iniche_close.c
00000000 l    df *ABS*	00000000 alt_iniche_dev.c
00000000 l    df *ABS*	00000000 alt_iniche_read.c
00000000 l    df *ABS*	00000000 alt_iniche_write.c
00000000 l    df *ABS*	00000000 ipnet.c
00000000 l    df *ABS*	00000000 ipstart.c
0d052a98 l     O .bss	00000004 nclosers
0d053210 l     O .bss	0000003c closers
00000000 l    df *ABS*	00000000 igmp_cmn.c
00000000 l    df *ABS*	00000000 bsdsock.c
00000000 l    df *ABS*	00000000 cksum.c
0d052948 l     O .rwdata	00000004 cksum_select
00000000 l    df *ABS*	00000000 in_utils.c
0d05324c l     O .bss	00000018 tistring
00000000 l    df *ABS*	00000000 netmain.c
00000000 l    df *ABS*	00000000 tk_crnos.c
00000000 l    df *ABS*	00000000 dhcpclnt.c
0d0276b8 l     F .text	000000cc dh_getlong
00000000 l    df *ABS*	00000000 dhcputil.c
00000000 l    df *ABS*	00000000 pktalloc.c
00000000 l    df *ABS*	00000000 q.c
00000000 l    df *ABS*	00000000 udp_open.c
0d0293e4 l       .text	00000000 done
0d029274 l       .text	00000000 asm1
0d0293a0 l       .text	00000000 loop0
0d02929c l       .text	00000000 loop
0d0293bc l       .text	00000000 fold
00000000 l    df *ABS*	00000000 brdutils.c
0d052af8 l     O .bss	00000004 kbd_init.3746
0d052b04 l     O .bss	00000004 cpu_statusreg
00000000 l    df *ABS*	00000000 osportco.c
00000000 l    df *ABS*	00000000 targnios.c
00000000 l    df *ABS*	00000000 nptcp.c
0d052b38 l     O .bss	00000004 in_tcptick
00000000 l    df *ABS*	00000000 rawsock.c
00000000 l    df *ABS*	00000000 sockcall.c
0d02dae8 l     F .text	00000098 sockargs
0d02cd24 l     F .text	000001fc t_getname
00000000 l    df *ABS*	00000000 socket.c
00000000 l    df *ABS*	00000000 socket2.c
00000000 l    df *ABS*	00000000 soselect.c
00000000 l    df *ABS*	00000000 tcp_in.c
00000000 l    df *ABS*	00000000 tcp_out.c
0d035e1c l     F .text	000000e8 bld_options
00000000 l    df *ABS*	00000000 tcp_subr.c
00000000 l    df *ABS*	00000000 tcp_timr.c
00000000 l    df *ABS*	00000000 tcp_usr.c
00000000 l    df *ABS*	00000000 tcpport.c
00000000 l    df *ABS*	00000000 udpsock.c
00000000 l    df *ABS*	00000000 alt_alarm_start.c
00000000 l    df *ABS*	00000000 alt_close.c
0d038a2c l     F .text	00000060 alt_get_errno
00000000 l    df *ABS*	00000000 alt_dcache_flush.c
00000000 l    df *ABS*	00000000 alt_dev.c
0d038b04 l     F .text	0000002c alt_dev_null_write
00000000 l    df *ABS*	00000000 alt_dev_llist_insert.c
0d038be4 l     F .text	00000060 alt_get_errno
00000000 l    df *ABS*	00000000 alt_do_ctors.c
00000000 l    df *ABS*	00000000 alt_do_dtors.c
00000000 l    df *ABS*	00000000 alt_errno.c
00000000 l    df *ABS*	00000000 alt_find_dev.c
00000000 l    df *ABS*	00000000 alt_iic.c
00000000 l    df *ABS*	00000000 alt_iic_isr_register.c
00000000 l    df *ABS*	00000000 alt_io_redirect.c
0d03906c l     F .text	000000c4 alt_open_fd
00000000 l    df *ABS*	00000000 alt_irq_vars.c
00000000 l    df *ABS*	00000000 alt_open.c
0d0391a8 l     F .text	000000dc alt_file_locked
0d03940c l     F .text	00000060 alt_get_errno
00000000 l    df *ABS*	00000000 alt_read.c
0d03958c l     F .text	00000060 alt_get_errno
00000000 l    df *ABS*	00000000 alt_release_fd.c
00000000 l    df *ABS*	00000000 alt_remap_cached.c
00000000 l    df *ABS*	00000000 alt_remap_uncached.c
00000000 l    df *ABS*	00000000 alt_tick.c
00000000 l    df *ABS*	00000000 alt_uncached_malloc.c
00000000 l    df *ABS*	00000000 alt_usleep.c
00000000 l    df *ABS*	00000000 alt_write.c
0d039b08 l     F .text	00000060 alt_get_errno
00000000 l    df *ABS*	00000000 altera_nios2_irq.c
00000040 l       *ABS*	00000000 OSCtxSw_SWITCH_PC
00000000 l    df *ABS*	00000000 os_cpu_c.c
00000014 l       *ABS*	00000000 OSTCBNext_OFFSET
00000032 l       *ABS*	00000000 OSTCBPrio_OFFSET
00000000 l       *ABS*	00000000 OSTCBStkPtr_OFFSET
00000000 l    df *ABS*	00000000 altera_avalon_cfi_flash_amd.c
0d03a420 l     F .text	000000bc alt_write_word_amd
0d03a2fc l     F .text	00000124 alt_wait_for_command_to_complete_amd
00000000 l    df *ABS*	00000000 altera_avalon_cfi_flash_intel.c
0d03a6d4 l     F .text	0000018c alt_unlock_block_intel
0d03a860 l     F .text	000000dc alt_write_word_intel
00000000 l    df *ABS*	00000000 allports.c
0d052b70 l     O .bss	00000004 inside_pktdemux
00000000 l    df *ABS*	00000000 timeouts.c
0d03add0 l     F .text	00000198 check_interval_timers
0d052b7c l     O .bss	00000004 numtimers
00000000 l    df *ABS*	00000000 tk_misc.c
00000000 l    df *ABS*	00000000 alt_iniche_fcntl.c
00000000 l    df *ABS*	00000000 et_arp.c
0d052b80 l     O .bss	00000004 arp_timer
0d052b98 l     O .bss	00000004 cachetime
00000000 l    df *ABS*	00000000 iface.c
00000000 l    df *ABS*	00000000 ip.c
0d0529c4 l     O .rwdata	00000004 uid
00000000 l    df *ABS*	00000000 ip_reasm.c
00000000 l    df *ABS*	00000000 ipdemux.c
00000000 l    df *ABS*	00000000 ipmc.c
00000000 l    df *ABS*	00000000 ipport.c
00000000 l    df *ABS*	00000000 ipraw.c
00000000 l    df *ABS*	00000000 iproute.c
00000000 l    df *ABS*	00000000 udp.c
0d052bc8 l     O .bss	00000002 usocket
00000000 l    df *ABS*	00000000 igmp.c
00000000 l    df *ABS*	00000000 igmp2.c
00000000 l    df *ABS*	00000000 ipopt.c
00000000 l    df *ABS*	00000000 u_mctest.c
0d0529cc l     O .rwdata	00000004 iCounter.4504
00000000 l    df *ABS*	00000000 dhcsetup.c
00000000 l    df *ABS*	00000000 memdev.c
00000000 l    df *ABS*	00000000 parseip.c
0d053264 l     O .bss	0000001e nearBuf.4182
00000000 l    df *ABS*	00000000 tcpcksum.c
00000000 l    df *ABS*	00000000 in_pcb.c
00000000 l    df *ABS*	00000000 vfsfiles.c
00000000 l    df *ABS*	00000000 vfsport.c
00000000 l    df *ABS*	00000000 alt_busy_sleep.c
00000000 l    df *ABS*	00000000 alt_fcntl.c
0d0488ac l     F .text	00000060 alt_get_errno
00000000 l    df *ABS*	00000000 alt_find_file.c
00000000 l    df *ABS*	00000000 alt_get_fd.c
00000000 l    df *ABS*	00000000 icmp.c
0d05286c l     O .rwdata	00000018 dsts
00000000 l    df *ABS*	00000000 atexit.c
00000000 l    df *ABS*	00000000 atoi.c
00000000 l    df *ABS*	00000000 calloc.c
00000000 l    df *ABS*	00000000 exit.c
00000000 l    df *ABS*	00000000 malloc.c
00000000 l    df *ABS*	00000000 memcmp.c
00000000 l    df *ABS*	00000000 strcpy.c
00000000 l    df *ABS*	00000000 strncmp.c
00000000 l    df *ABS*	00000000 strncpy.c
00000000 l    df *ABS*	00000000 strtol.c
00000000 l    df *ABS*	00000000 vprintf.c
00000000 l    df *ABS*	00000000 vsprintf.c
00000000 l    df *ABS*	00000000 __atexit.c
00000000 l    df *ABS*	00000000 __call_atexit.c
0d04a5c4 l     F .text	00000004 register_fini
00000000 l    df *ABS*	00000000 alt_exit.c
0d04a778 l     F .text	00000040 alt_sim_halt
0d002bfc g     F .text	0000001c putchar
0d05cf88 g     O .bss	00000014 soq
0d008e74 g     F .text	00000094 _mprec_log10
0d01b81c g     F .text	000000e0 alt_tse_get_mac_info
0d0528fe g     O .rwdata	00000002 OSTaskNameSize
0d008f60 g     F .text	00000088 __any_on
0d00a84c g     F .text	00000070 _isatty_r
0d04c570 g     O .rodata	00000028 __mprec_tinytens
0d03cca4 g     F .text	00000780 ip_write_internal
0d00d250 g     F .text	000000c8 alt_main
0d049f48 g     F .text	0000008c strcpy
0d028b38 g     F .text	000000ac pk_free
0d002c20 g     F .text	000000a0 _puts_r
0d0165b8 g     F .text	00000048 alt_read_query_entry_32bit
0d05d134 g     O .bss	00000100 alt_irq
0d05270c g     O .rwdata	00000009 rtp_priority
0d00a8bc g     F .text	00000078 _lseek_r
0d049aa4 g     F .text	00000334 icmp_timex
0d02a4c4 g     F .text	00000044 m_freem
0d0480e4 g     F .text	00000048 vgetc
0d029560 g     F .text	0000001c clock_c
0d052b50 g     O .bss	00000004 tcp_optionbuf
0d03c76c g     F .text	00000084 if_getbynum
0d0119dc g     F .text	000000d0 OS_MemInit
0d052af0 g     O .bss	00000004 dsc_rlyerrs
0d052ae0 g     O .bss	00000004 dsc_releases
0d015d30 g     F .text	000002c0 alt_flash_cfi_write
0d025260 g     F .text	00000074 TK_OSTaskQuery
0d029254 g       .text	00000000 asm_cksum
0d01f718 g     F .text	00000100 marvell_cfg_rgmii
0d015918 g     F .text	00000064 OSTimeSet
0d047fc4 g     F .text	00000120 vgetc_locked
0d029da0 g     F .text	00000020 post_task_setup
0d0406a4 g     F .text	00000348 ipr_stats
0d037788 g     F .text	00000134 tcp_attach
0d052958 g     O .rwdata	00000004 reqlist_len
0d02b970 g     F .text	00000084 tcp_tick
0d02448c g     F .text	00000074 print_ipad
0d02515c g     F .text	00000104 tcp_wakeup
0d00c058 g     F .text	00000088 __eqdf2
0d0529e0 g     O .bss	00000004 last_flash_sector_offset
0d052a9c g     O .bss	00000004 igmp_timers_are_running
0d000fa0 g     F .text	000000ec led_bit_toggle
0d0346a8 g     F .text	0000012c tcp_pulloutofband
0d01cd98 g     F .text	000001f0 alt_tse_phy_print_profile
0d00d928 g     F .text	000006b4 OSEventPendMulti
0d05d61c g       *ABS*	00000000 __alt_heap_start
0d039f68 g     F .text	00000020 OSTaskCreateHook
0d028324 g     F .text	00000074 dhc_ifacedone
0d01f488 g     F .text	000000a8 marvell_phy_cfg
0d040a40 g     F .text	00000400 ip_rcv
0d047d14 g     F .text	0000017c vfseek
0d030508 g     F .text	00000120 soqremque
0d042890 g     F .text	00000858 udpdemux
0d020f18 g     F .text	00000104 tse_mac_close
0d002998 g     F .text	00000044 printf
0d052b9c g     O .bss	00000004 rt_mib
0d0528d6 g     O .rwdata	00000002 OSMboxEn
0d028234 g     F .text	00000060 dhc_state_init
0d04a46c g     F .text	00000024 vsprintf
0d0197a0 g     F .text	00000124 alt_avalon_sgdma_do_sync_transfer
0d00e030 g     F .text	0000007c OSIntEnter
0d00a318 g     F .text	00000068 __sseek
0d0071ec g     F .text	000000a4 __sinit
0d0419e4 g     F .text	00000118 in_delmulti
0d005500 g     F .text	00000130 __swbuf_r
0d052bb4 g     O .bss	00000004 so_evtmap_create
0d0528e6 g     O .rwdata	00000002 OSQEn
0d046294 g     F .text	00000094 in_pcballoc
0d052974 g     O .rwdata	00000002 socket_defaults
0d008010 g     F .text	00000084 _setlocale_r
0d03b598 g     F .text	00000498 send_arp
0d0072ec g     F .text	00000068 __sfmoreglue
0d046d80 g     F .text	00000368 vfopen_locked
0d0529ec g     O .bss	00000004 SSSLEDCommandQ
0d00d5e4 g     F .text	000000d0 __malloc_unlock
0d039fc4 g     F .text	0000001c OSTaskStatHook
0d03acb4 g     F .text	00000058 prep_modules
0d0239d4 g     F .text	000001b8 bsd_i_sockoptlen
0d052a30 g     O .bss	00000001 OSLockNesting
0d052950 g     O .rwdata	00000004 xids
0d002ee8 g     F .text	00000674 strerror
0d01ba80 g     F .text	00000e18 getPHYSpeed
0d0472e0 g     F .text	00000040 vfclose
0d05d028 g     O .bss	0000002c tcb
0d052924 g     O .rwdata	00000002 OSDataSize
0d03964c g     F .text	00000038 alt_remap_cached
0d052a31 g     O .bss	00000001 OSRunning
0d03c4a0 g     F .text	000002cc grat_arp
0d00133c g     F .text	0000005c get_ip_addr
0d045cac g     F .text	000000ac inet_pton
0d03c8d0 g     F .text	0000009c reg_type
0d05cb2c g     O .bss	000000f0 dhc_states
0d0227d0 g     F .text	00000198 igmp_fasttimo
0d0474a4 g     F .text	0000005c vunlink_flag_open_files
0d027fdc g     F .text	00000088 dhc_halt
0d019ef4 g     F .text	000003e8 alt_avalon_sgdma_construct_descriptor_burst
0d052ad4 g     O .bss	00000004 dsc_acks
0d05d054 g     O .bss	000000e0 tcpstat
0d03ff54 g     F .text	0000035c ip_reasm_copy_queued_fragments_into_reassy_buffer
0d02aa54 g     F .text	000000a8 dtom
0d035d20 g     F .text	000000fc tcp_setpersist
0d02d0fc g     F .text	000001a4 t_getsockopt
0d0027a0 g     F .text	000000e0 memmove
0d052ae4 g     O .bss	00000004 dsc_naks
0d02aef8 g     F .text	000005f8 ip_output
0d03a008 g     F .text	0000001c OSInitHookBegin
0d049dd8 g     F .text	00000054 icmp_du
0d05294c g     O .rwdata	00000004 num_net_tasks
0d052bd8 g     O .bss	00000004 vfiles
0d05291c g     O .rwdata	00000002 OSTmrSize
0d0453a8 g     F .text	00000104 dhc_main_ipset
0d0072dc g     F .text	00000010 _cleanup
0d03f04c g     F .text	000002e0 ip_reasm_process_first_fragment
0d008fe8 g     F .text	000000bc _Balloc
0d00185c g     F .text	00000194 get_board_mac_addr
0d052a34 g     O .bss	00000004 OSIdleCtr
0d0529f0 g     O .bss	00000004 SSSLEDLightshowSem
0d01e74c g     F .text	00000194 alt_tse_phy_set_adv_1000
0d052938 g     O .rwdata	00000001 max_mac_system
0d0442c4 g     F .text	000005f0 ip_setmoptions
0d01aa80 g     F .text	00000a14 alt_tse_system_add_sys
0d00c168 g     F .text	00000088 __gtdf2
0d04576c g     F .text	0000002c md_fseek
0d039c34 g       .text	00000000 OSStartTsk
00000000  w      *UND*	00000000 __errno
0d00f4fc g     F .text	000002e0 OS_TCBInit
0d03f32c g     F .text	000000a0 ip_reassm
0d028064 g     F .text	000001d0 dhc_reclaim
0d016744 g     F .text	00000048 alt_write_flash_command_32bit_device_16bit_mode
0d05d414 g     O .bss	00000010 udp_mib
09500000 g     F .entry	00000000 __reset
0d02d934 g     F .text	000000e4 t_shutdown
0d002104 g     F .text	000001ec sss_handle_receive
0d02d390 g     F .text	00000150 t_recvfrom
0d052922 g     O .rwdata	00000002 OSTmrWheelTblSize
0d044aa8 g     F .text	0000067c u_mctest_run
0d019a08 g     F .text	00000070 alt_avalon_sgdma_construct_stream_to_mem_desc_burst
0d041b6c g     F .text	00000094 prep_ifaces
0d052ab8 g     O .bss	00000001 to_netmain
0d0287a4 g     F .text	000000dc pk_alloc
0d0528c2 g     O .rwdata	00000002 OSEventSize
0d000bc0 g     F .text	000002ec alt_SSSErrorHandler
0d052a38 g     O .bss	00000001 OSPrioHighRdy
0d00a7d8 g     F .text	00000074 _fstat_r
0d0508c0 g     O .rwdata	00000120 tse_mac_device
0d024ed4 g     F .text	0000004c tk_nettick
0d039f88 g     F .text	00000020 OSTaskDelHook
0d01624c g     F .text	000002e8 alt_flash_program_block
0d052a10 g     O .bss	00000004 errno
0d002d20 g     F .text	00000014 __srget
0d031834 g     F .text	000000cc in_pcbnotify
0d039c14 g       .text	00000000 OSStartHighRdy
0d05cc1c g     O .bss	00000014 lilfreeq
0d000304 g     F .text	00000624 alt_uCOSIIErrorHandler
0d041c28 g     F .text	00000028 evtmap_setup
0d0140f0 g     F .text	00000200 OSTaskCreateExt
0d052abc g     O .bss	00000004 tcp_sleep_timeout
0d030f34 g     F .text	000001d0 sbdrop
0d052bb0 g     O .bss	00000004 net_system_exit
0d05d424 g     O .bss	00000068 icmp_mib
0d036874 g     F .text	00000078 tcp_getseq
0d042038 g     F .text	000000cc ip_raw_alloc
0d01efa4 g     F .text	000004e4 alt_tse_phy_set_common_speed
0d01095c g     F .text	00000068 OSFlagPendGetFlagsRdy
0d052902 g     O .rwdata	00000002 OSTaskStatStkSize
0d05c600 g     O .bss	00000010 pmac_groups
0d026700 g     F .text	00000b3c dhc_request
0d02ebc0 g     F .text	000007e4 soreceive
0d00f968 g     F .text	00000334 OSFlagAccept
0d012114 g     F .text	000000c8 OSQFlush
0d011aac g     F .text	00000154 OSQAccept
0d052a18 g     O .bss	00000004 alt_argv
0d05a884 g       *ABS*	00000000 _gp
0d0409ec g     F .text	00000054 ip_reasm_send_icmp_timex
0d0398d0 g     F .text	00000118 usleep
0d047320 g     F .text	00000048 vfflush
0d05cf30 g     O .bss	00000040 resid_semaphore
0d024344 g     F .text	00000148 hexdump
0d03ef04 g     F .text	000000a8 ip_reasm_incr_mem_useage
0d029df8 g     F .text	00000034 calloc2
0d022e8c g     F .text	0000007c igmp_leavegroup
0d013f1c g     F .text	000001d4 OSTaskCreate
0d0139a8 g     F .text	00000574 OSTaskChangePrio
0d052a2c g     O .bss	00000004 alt_heapsem
0d0366c0 g     F .text	000000e8 tcp_close
0d00f7dc g     F .text	0000018c OSDebugInit
0d0142f0 g     F .text	0000040c OSTaskDel
0d048540 g     F .text	0000006c vferror
0d03986c g     F .text	00000064 alt_uncached_malloc
0d01a574 g     F .text	00000060 tse_mac_initTransInfo2
0d0435a0 g     F .text	000000c0 udp_alloc
0d052574 g     O .rwdata	00000180 alt_fd_list
0d0592fc g     O .bss	00000370 OSFlagTbl
0d052b3c g     O .bss	00000008 mbstat
0d002670 g     F .text	00000090 _getc_r
0d0025d8 g     F .text	00000098 getc
0d002c18 g     F .text	00000008 _putchar_r
0d00eaac g     F .text	000000b8 OS_EventTaskRemove
0d043eb4 g     F .text	00000158 igmpv2_chk_set_timer
0d024f20 g     F .text	0000002c TK_OSTimeDly
0d038d0c g     F .text	00000094 alt_find_dev
0d002700 g     F .text	000000a0 memcpy
0d01a7fc g     F .text	00000058 tse_mac_setMIImode
0d052aec g     O .bss	00000004 dsc_rebind
0d03b19c g     F .text	00000080 task_stats
0d02c420 g     F .text	0000004c DOMAIN_CHECK
0d02b4f0 g     F .text	00000040 in_broadcast
0d0528ec g     O .rwdata	00000002 OSRdyTblSize
0d01c898 g     F .text	00000048 alt_tse_phy_rd_mdio_addr
0d052bd4 g     O .bss	00000004 vfsystems
0d0434d0 g     F .text	000000d0 udp_socket
0d052a8c g     O .bss	00000004 MaxMtu
0d0314c8 g     F .text	00000158 sock_selscan
0d01f898 g     F .text	0000015c triple_speed_ethernet_init
0d0072d0 g     F .text	0000000c _cleanup_r
0d00c300 g     F .text	000000f8 __floatsidf
0d03ecb0 g     F .text	000000d0 ip_reasm_match_frag_with_ire
0d030678 g     F .text	00000050 socantrcvmore
0d01a5d4 g     F .text	000000f0 tse_mac_sTxWrite
0d001f60 g     F .text	000001a4 sss_exec_command
0d002984 g     F .text	00000014 perror
0d039130 g     F .text	00000078 alt_io_redirect
0d00c278 g     F .text	00000088 __ltdf2
0d052b18 g     O .bss	00000004 netq_intmask
0d045c3c g     F .text	00000070 hextoa
0d04a854 g       *ABS*	00000000 __DTOR_END__
0d02d70c g     F .text	00000228 t_send
0d038930 g     F .text	000000fc alt_close
0d052b44 g     O .bss	00000002 select_wait
0d002cc0 g     F .text	00000014 puts
0d0249f0 g     F .text	00000044 std_out
0d05c620 g     O .bss	00000030 tse_iniche_dev_driver_data
0d04812c g     F .text	00000138 vfslookup_locked
0d02e3a8 g     F .text	0000009c soaccept
0d00d6b4 g     F .text	00000130 OSEventNameGet
0d0528d0 g     O .rwdata	00000002 OSFlagMax
0d039b68 g     F .text	00000020 altera_nios2_irq_init
0d05cf9c g     O .bss	0000003c tcpmib
0d02db80 g     F .text	0000009c t_errno
0d041c50 g     F .text	000000f0 ip_raw_open
0d0275a0 g     F .text	00000118 dhc_decline
0d008dc4 g     F .text	000000b0 __ratio
0d00e0ac g     F .text	00000100 OSIntExit
0d0529c8 g     O .rwdata	00000004 ipRoutes
0d04744c g     F .text	00000058 vfeof
0d036b8c g     F .text	0000005c tcp_canceltimers
0d025ec8 g     F .text	0000021c dhc_buildheader
0d05290a g     O .rwdata	00000002 OSTCBSize
0d019aec g     F .text	00000084 alt_avalon_sgdma_construct_mem_to_stream_desc_burst
0d052a39 g     O .bss	00000001 OSPrioCur
0d01813c g     F .text	000002c0 altera_avalon_jtag_uart_read
0d049ec0 g     F .text	00000014 malloc
0d052bd0 g     O .bss	00000004 inpcb_cachemiss
0d0029dc g     F .text	00000034 _printf_r
0d045e44 g     F .text	000000c4 inet46_addr
0d052bcc g     O .bss	00000004 inpcb_cachehits
0d00c7a0 g     F .text	00000008 __udivsi3
0d052534 g     O .rwdata	0000000b tcp_outflags
0d05c650 g     O .bss	00000130 tse
0d00cfe0 g     F .text	000000c0 isatty
0d01b494 g     F .text	00000178 alt_tse_sys_enable_mdio_sharing
0d0528f0 g     O .rwdata	00000002 OSStkWidth
0d04c480 g     O .rodata	000000c8 __mprec_tens
0d046bdc g     F .text	0000007c vf_alloc_and_link_vop
0d0528e4 g     O .rwdata	00000002 OSPtrSize
0d052ba0 g     O .bss	00000004 ipr_curr_mem
0d02245c g     F .text	0000006c exit_hook
0d052aa0 g     O .bss	00000004 igmp_cticks
0d01b790 g     F .text	0000008c alt_tse_get_mac_info_index
0d052b2c g     O .bss	00000004 mheap_sem_ptr
0d034a40 g     F .text	00000048 ip4_tcpmss
0d007fec g     F .text	00000008 __locale_charset
0d0528c4 g     O .rwdata	00000002 OSEventTblSize
0d05d398 g     O .bss	00000014 netlist
0d02f3a4 g     F .text	000000a8 soshutdown
0d039b88 g       .text	00000000 OSCtxSw
0d03ac44 g     F .text	0000004c packet_check
0d02723c g     F .text	00000280 dhc_setip
0d05cfd8 g     O .bss	00000014 mbufq
0d02e358 g     F .text	00000050 soabort
0d052a04 g     O .bss	00000004 __malloc_top_pad
0d052a3c g     O .bss	00000004 OSTCBList
0d028e28 g     F .text	00000110 qdel
0d03aac0 g     F .text	00000150 station_state
0d0421a0 g     F .text	00000184 rt_lookup
0d052b5c g     O .bss	00000004 alt_fd_list_lock
0d052890 g     O .rwdata	00000004 __mb_cur_max
0d022f08 g     F .text	0000035c igmp_validate
0d007ff4 g     F .text	0000000c _localeconv_r
0d022178 g     F .text	000002e4 ip_startup
0d02c75c g     F .text	00000298 t_accept
0d0300f8 g     F .text	0000008c soisdisconnecting
0d0096e0 g     F .text	0000003c __i2b
0d0079d0 g     F .text	0000049c __sfvwrite_r
0d019c14 g     F .text	00000058 alt_avalon_sgdma_stop
0d021b30 g     F .text	000003d4 pktdemux
0d05966c g     O .bss	00000c30 OSMemTbl
0d052a40 g     O .bss	00000001 OSTickStepState
0d01c934 g     F .text	00000128 alt_tse_phy_wr_mdio_reg
0d029418 g     F .text	000000ac kbhit
0d02cf20 g     F .text	000001dc t_setsockopt
0d00a2a0 g     F .text	00000070 _sbrk_r
0d03a4dc g     F .text	00000084 alt_program_intel
0d0526f4 g     O .rwdata	00000018 icmpdu_types
0d01cf88 g     F .text	0000070c alt_tse_mac_group_init
0d047500 g     F .text	00000220 vunlink
0d01fc58 g     F .text	00000ae8 tse_mac_init
0d0528e8 g     O .rwdata	00000002 OSQMax
0d024184 g     F .text	000000b0 ccksum
0d046c58 g     F .text	000000d8 vf_alloc_buffer
0d052bc4 g     O .bss	00000004 cachedRoute
0d05295c g     O .rwdata	00000004 lilbufs
0d05a29c g     O .bss	00000800 OSTaskStatStk
0d045798 g     F .text	00000024 md_ftell
0d024234 g     F .text	00000068 cksum
0d0115c4 g     F .text	0000010c OSMemNameGet
0d02df34 g     F .text	00000130 sofree
0d052a94 g     O .bss	00000004 ifNumber
0d0528c8 g     O .rwdata	00000002 OSFlagEn
0d00a934 g     F .text	00000078 _read_r
0d05290e g     O .rwdata	00000002 OSTimeTickHookEn
0d038a8c g     F .text	00000078 alt_dcache_flush
0d0111f8 g     F .text	000000ac OS_FlagUnlink
0d012678 g     F .text	00000180 OSQPost
0d050de0 g     O .rwdata	0000000c __lc_ctype
0d05299c g     O .rwdata	00000004 alt_max_fd
0d016534 g     F .text	00000040 alt_read_query_entry_8bit
0d00f088 g     F .text	0000006c OS_MemCopy
0d052964 g     O .rwdata	00000004 bigbufs
0d0378bc g     F .text	000000d4 tcp_disconnect
0d00f0f4 g     F .text	000000d4 OS_Sched
0d00cbdc g     F .text	00000138 __unpack_d
0d00a6b4 g     F .text	00000110 _fclose_r
0d0114c0 g     F .text	00000104 OSMemGet
0d014a24 g     F .text	000001c4 OSTaskNameSet
0d03a560 g     F .text	00000174 alt_erase_block_intel
0d007150 g     F .text	00000034 fflush
0d052a08 g     O .bss	00000004 __malloc_max_sbrked_mem
0d052a44 g     O .bss	00000004 OSCtxSwCtr
0d05caa4 g     O .bss	00000064 igmpstats
0d039fe0 g     F .text	00000028 OSTimeTickHook
0d0265fc g     F .text	00000104 dhc_rx_offer
0d023b8c g     F .text	00000120 bsd_getsockopt
0d0528d2 g     O .rwdata	00000002 OSFlagNameSize
0d05d3fc g     O .bss	00000018 ire_stats
0d001100 g     F .text	000001e4 LEDManagementTask
0d037b2c g     F .text	000001b8 udp_soinput
0d028d78 g     F .text	000000b0 putq
0d00eb64 g     F .text	00000104 OS_EventTaskRemoveMulti
0d052ab4 g     O .bss	00000004 iniche_net_ready
0d00b9c8 g     F .text	00000074 __adddf3
0d00e958 g     F .text	00000154 OS_EventTaskWaitMulti
0d0484f8 g     F .text	00000048 isvfile
0d02f54c g     F .text	000004c0 sosetopt
0d024d58 g     F .text	000000f4 netmain
0d034a88 g     F .text	0000011c tcp_mss
0d008ca4 g     F .text	00000120 __b2d
0d0458b8 g     F .text	0000031c parse_ipad
0d046bbc g     F .text	00000020 get_vfopen_error
0d0528ea g     O .rwdata	00000002 OSQSize
0d00af88 g     F .text	000005b0 __umoddi3
0d00d100 g     F .text	000000f0 lseek
0d03ad0c g     F .text	000000c4 inet_timer
0d013254 g     F .text	0000027c OSSemPend
0d01cb20 g     F .text	00000278 alt_tse_phy_add_profile_default
0d01e20c g     F .text	00000540 alt_tse_phy_get_cap
0d001d10 g     F .text	00000190 sss_send_menu
0d05288c g     O .rwdata	00000004 _global_impure_ptr
0d024688 g     F .text	00000164 print_eth
0d0470e8 g     F .text	00000050 vfopen
0d03946c g     F .text	00000120 alt_read
0d009a5c g     F .text	000005f4 _realloc_r
0d000928 g     F .text	00000298 alt_NetworkErrorHandler
0d0528d4 g     O .rwdata	00000002 OSLowestPrio
0d05d61c g       *ABS*	00000000 __bss_end
0d038f74 g     F .text	000000f8 alt_iic_isr_register
0d019664 g     F .text	0000013c alt_avalon_sgdma_do_async_transfer
0d02a390 g     F .text	00000134 m_free
0d03a05c g     F .text	00000020 OSTCBInitHook
0d020ed8 g     F .text	00000040 tse_mac_stats
0d028880 g     F .text	000002b8 pk_validate
0d05291a g     O .rwdata	00000002 OSTmrCfgTicksPerSec
0d03975c g     F .text	00000110 alt_tick
0d046938 g     F .text	0000025c in_pcblookup
0d028448 g     F .text	000000cc find_opt
0d00a9ac g     F .text	000005dc __udivdi3
0d02a1e8 g     F .text	000001a8 m_getnbuf
0d028c04 g     F .text	000000ac dump_buf_estats
0d01e0c8 g     F .text	00000144 alt_tse_phy_check_link
0d052b94 g     O .bss	00000004 arpRepsOut
0d0528bc g     O .rwdata	00000002 OSEventEn
0d04c548 g     O .rodata	00000028 __mprec_bigtens
0d00993c g     F .text	00000120 __s2b
0d052916 g     O .rwdata	00000002 OSTmrCfgNameSize
0d00c4d0 g     F .text	00000194 __floatunsidf
0d03a93c g     F .text	000000fc netmain_init
0d01f624 g     F .text	000000f4 marvell_cfg_sgmii
0d01df18 g     F .text	000001b0 alt_tse_phy_restart_an
0d008bc4 g     F .text	00000060 __mcmp
0d052ad0 g     O .bss	00000004 dsc_requests
0d036074 g     F .text	00000488 tcp_respond
0d037f68 g     F .text	0000033c udp4_sockbind
0d052884 g     O .rwdata	00000004 __ctype_ptr
0d052b1c g     O .bss	00000004 old_mode
0d022c10 g     F .text	0000027c igmp_joingroup
0d02b618 g     F .text	00000358 so_icmpdu
0d0072b8 g     F .text	00000018 __fp_lock_all
0d052be4 g     O .bss	00000004 vfs_dir_stale
0d038f2c g     F .text	00000048 alt_ic_irq_enabled
0d05c610 g     O .bss	00000010 pphy_profiles
0d0402b0 g     F .text	000000e4 ip_reasm_process_timer_tick
0d0485ac g     F .text	0000005c vclearerr
0d024098 g     F .text	000000ec bsd_setsockopt
0d02a9fc g     F .text	00000058 mbuf_len
0d011004 g     F .text	000000e4 OS_FlagInit
0d0396c4 g     F .text	00000098 alt_alarm_stop
0d0482ac g     F .text	000001e8 strippath
0d052954 g     O .rwdata	00000004 reqlist
0d024fbc g     F .text	000001a0 tcp_sleep
0d04a3c4 g     F .text	00000024 strtol
0d025698 g     F .text	00000830 dhc_upcall
0d037990 g     F .text	000000e0 tcp_usrclosed
20000000 g       *ABS*	00000000 __alt_mem_descriptor_memory
0d052b08 g     O .bss	00000004 cticks_factor
0d0528f8 g     O .rwdata	00000002 OSTaskIdleStkSize
0d04637c g     F .text	00000254 in_pcbbind
0d052b60 g     O .bss	00000004 alt_irq_active
0d012de0 g     F .text	000000c0 OSSemAccept
0d0117f0 g     F .text	000000f0 OSMemPut
0d0112a4 g     F .text	0000021c OSMemCreate
0d052a48 g     O .bss	00000004 OSIdleCtrMax
0d0001ec g     F .exceptions	000000d0 alt_irq_handler
0d05254c g     O .rwdata	00000028 alt_dev_null
0d052976 g     O .rwdata	00000001 tcprexmtthresh
0d05290c g     O .rwdata	00000002 OSTicksPerSec
0d03c96c g     F .text	00000098 if_killsocks
0d03d424 g     F .text	00000248 ip_write
0d040e40 g     F .text	0000060c ip_rcv_phase2
0d02cce0 g     F .text	00000044 t_getsockname
0d02c9f4 g     F .text	000002a8 t_connect
0d052970 g     O .rwdata	00000004 TCPTV_MSL
0d05cc30 g     O .bss	00000010 memestats
0d01de04 g     F .text	00000114 alt_tse_phy_init
0d0294c4 g     F .text	00000060 getch
0d016a4c g     F .text	000000ac alt_set_flash_algorithm_func
0d0527ec g     O .rwdata	00000080 vfs_root_path
0d02cc9c g     F .text	00000044 t_getpeername
0d019c6c g     F .text	00000070 alt_avalon_sgdma_check_descriptor_status
0d03efac g     F .text	000000a0 ip_reasm_decr_mem_useage
0d030804 g     F .text	00000080 soreserve
0d039b88 g       .text	00000000 OSIntCtxSw
0d029e2c g     F .text	000000f4 npalloc
0d008a90 g     F .text	00000070 __hi0bits
0d052bc0 g     O .bss	00000004 ipraw_eps
0d028514 g     F .text	00000290 pk_init
0d04556c g     F .text	00000180 md_fread
0d049e58 g     F .text	0000001c calloc
0d020740 g     F .text	000002f8 tse_mac_raw_send
0d00c3f8 g     F .text	000000d8 __fixdfsi
0d05d234 g     O .bss	00000064 intimers
0d0308e4 g     F .text	00000048 sbrelease
0d031968 g     F .text	000000f0 ifd_clr
0d031214 g     F .text	00000094 sbdroprecord
0d0247ec g     F .text	00000080 uslash
0d0399e8 g     F .text	00000120 alt_write
0d016600 g     F .text	0000003c alt_write_flash_command_8bit_device_8bit_mode
0d052b90 g     O .bss	00000004 arpRepsIn
0d025508 g     F .text	00000090 dhc_get_srv_ipaddr
0d03af68 g     F .text	00000168 in_timerset
0d052a4c g     O .bss	00000004 OSTCBFreeList
0d0134d0 g     F .text	0000017c OSSemPendAbort
0d034ba4 g     F .text	0000117c tcp_output
0d052b6c g     O .bss	00000004 activehost
0d052994 g     O .rwdata	00000008 alt_dev_list
0d024b2c g     F .text	0000022c parse_args
0d052b20 g     O .bss	00000004 global_TCPwakeup_setIndx
0d0074a8 g     F .text	00000058 _fputc_r
0d02122c g     F .text	00000070 write
0d019e1c g     F .text	0000007c alt_avalon_sgdma_enable_desc_poll
0d029f20 g     F .text	000000b8 npfree
0d002b14 g     F .text	000000e8 _putc_r
0d03bcec g     F .text	00000294 arpReply
0d0242c8 g     F .text	0000007c nextarg
0d052910 g     O .rwdata	00000002 OSVersionNbr
0d03f95c g     F .text	00000594 ip_reasm_process_subsequent_fragments
0d0529d4 g     O .rwdata	00000004 pton_error
0d052ac4 g     O .bss	00000004 dsc_errors
0d053284 g     O .bss	00002000 SSSInitialTaskStk
0d05c780 g     O .bss	00000014 rcvdq
0d031900 g     F .text	00000068 tcp_notify
0d00ceac g     F .text	000000d4 fstat
0d00249c g     F .text	0000002c fprintf
0d02e444 g     F .text	000000d4 soconnect
0d042144 g     F .text	0000005c ip_raw_maxalloc
0d01f818 g     F .text	00000080 DP83848C_link_status_read
0d0260e4 g     F .text	00000518 dhc_discover
0d0178a0 g     F .text	000000dc alt_check_primary_table
0d001b34 g     F .text	000000a8 SSSCreateOSDataStructs
0d0468bc g     F .text	0000007c in_setpeeraddr
0d0528b8 g     O .rwdata	00000004 OSEndiannessTest
0d029524 g     F .text	0000003c clock_init
0d047368 g     F .text	000000e4 vfgets
0d03b320 g     F .text	0000017c et_send
0d00981c g     F .text	00000120 __pow5mult
0d0529f8 g     O .bss	00000004 __nlocale_changed
0d00c7a8 g     F .text	00000008 __umodsi3
0d016080 g     F .text	00000068 alt_flash_cfi_read
0d0167d4 g     F .text	00000034 alt_write_native_8bit
0d045bd4 g     F .text	00000068 inet_addr
0d03ee6c g     F .text	00000098 ip_reasm_check_mem_useage
0d02f44c g     F .text	00000100 sorflush
0d04a3fc g     F .text	00000020 vprintf
0d05cd44 g     O .bss	000000fc global_tcb_ext
0d03daf4 g     F .text	00000488 ip_fragment_lc
0d05c794 g     O .bss	00000300 netstatic
0d02c4fc g     F .text	0000017c t_bind
0d019a78 g     F .text	00000074 alt_avalon_sgdma_construct_mem_to_stream_desc
0d0528ca g     O .rwdata	00000002 OSFlagGrpSize
0d029170 g     F .text	000000e4 udp_close
0d019b70 g     F .text	00000050 alt_avalon_sgdma_register_callback
0d029b10 g     F .text	0000021c alt_iniche_init
0d05d61c g       *ABS*	00000000 end
0d029748 g     F .text	00000088 UNLOCK_NET_RESOURCE
0d01f9f4 g     F .text	00000264 prep_tse_mac
0d02d2a0 g     F .text	000000f0 t_recv
0d01663c g     F .text	0000007c alt_write_flash_command_16bit_device_8bit_mode
0d018eac g     F .text	00000530 altera_avalon_lcd_16207_write
0d047720 g     F .text	000001ac vfread
0d021a48 g     F .text	000000e8 netclose
0d0022f0 g     F .text	000001ac SSSSimpleSocketServerTask
0d049e40 g     F .text	0000000c _atoi_r
0d01a8a8 g     F .text	000001d8 alt_tse_phy_add_profile
0d016b74 g     F .text	00000580 alt_read_cfi_table
0d052980 g     O .rwdata	00000004 tcp_keepintvl
0d017ac4 g     F .text	00000138 altera_avalon_jtag_uart_init
0d00f36c g     F .text	000000c8 OS_TaskStat
0d052ac8 g     O .bss	00000004 dsc_discovers
0d052928 g     O .rwdata	00000004 tse_mac_name
0d0524ec g     O .rwdata	00000018 tcp_protosw
0d04a850 g       *ABS*	00000000 __CTOR_LIST__
0d052be0 g     O .bss	00000004 vfopen_error
0d800000 g       *ABS*	00000000 __alt_stack_pointer
0d052b54 g     O .bss	00000004 tcp_maxidle
0d052af4 g     O .bss	00000004 firstudp
0d019e98 g     F .text	0000005c alt_avalon_sgdma_disable_desc_poll
0d01a4b8 g     F .text	00000090 alt_avalon_timer_sc_init
0d00c848 g     F .text	00000080 __clzsi2
0d0183fc g     F .text	000002dc altera_avalon_jtag_uart_write
0d0198c4 g     F .text	00000070 alt_avalon_sgdma_construct_mem_to_mem_desc
0d015c5c g     F .text	0000009c alt_flash_cfi_init
0d0071dc g     F .text	00000004 __sfp_lock_acquire
0d008984 g     F .text	000000e4 memchr
0d00f034 g     F .text	00000054 OS_MemClr
0d003630 g     F .text	00001eac ___vfprintf_internal_r
0d039c58 g     F .text	00000310 OSTaskStkInit
0d002da8 g     F .text	00000060 _sprintf_r
0d0199b4 g     F .text	00000054 alt_avalon_sgdma_construct_stream_to_mem_desc
0d0076bc g     F .text	00000314 _free_r
0d04400c g     F .text	00000170 igmpv2_chk4_rtr_alert_opt
0d02da18 g     F .text	000000d0 t_socketclose
0d055284 g     O .bss	00002000 LED7SegLightshowTaskStk
0d00e6b4 g     F .text	00000194 OS_EventTaskRdy
0d04a5c8 g     F .text	000001b0 __call_exitprocs
0d002cd4 g     F .text	0000004c __srget_r
0d020a38 g     F .text	000000a8 tse_sgdmaRx_isr
0d052a50 g     O .bss	00000001 OSCPUUsage
0d05ca94 g     O .bss	00000010 nets
0d029688 g     F .text	000000c0 LOCK_NET_RESOURCE
0d0274bc g     F .text	000000e4 dhc_resetip
0d0529fc g     O .bss	00000004 __mlocale_changed
0d020c88 g     F .text	00000250 tse_mac_rcv
0d02c46c g     F .text	00000090 t_socket
0d05289c g     O .rwdata	00000004 __malloc_sbrk_base
0d0002bc g     F .text	00000048 _start
0d03b2cc g     F .text	00000054 etainit
0d052b64 g     O .bss	00000004 _alt_tick_rate
0d03ac90 g     F .text	00000024 mcastlist
0d0121dc g     F .text	00000320 OSQPend
0d05cc40 g     O .bss	000000f0 pktlog
0d043b1c g     F .text	0000014c igmpv2_process_report
0d031acc g     F .text	00000080 ifd_isset
0d04274c g     F .text	00000144 del_route
0d019cdc g     F .text	00000058 alt_avalon_sgdma_open
0d0035d0 g     F .text	00000008 _user_strerror
0d0153e8 g     F .text	0000014c OSTimeDly
0d0012e4 g     F .text	00000058 get_mac_addr
0d02de44 g     F .text	000000f0 solisten
0d0093ac g     F .text	0000014c __lshift
0d052b68 g     O .bss	00000004 _alt_nticks
0d01ca5c g     F .text	000000c4 alt_tse_phy_rd_mdio_reg
0d0211b4 g     F .text	00000078 read
0d0159b0 g     F .text	00000274 alt_sys_init
0d0367a8 g     F .text	0000004c tcp_quench
0d02486c g     F .text	00000184 ns_printf
0d03c7f0 g     F .text	000000e0 isbcast
0d0297d0 g     F .text	00000214 TK_NEWTASK
0d04a490 g     F .text	00000134 __register_exitproc
0d052a51 g     O .bss	00000001 OSTaskCtr
0d03ed80 g     F .text	000000ec ip_reasm_determine_type_of_frag
0d052a80 g     O .bss	00000001 phy_profile_count
0d049fd4 g     F .text	000000f0 strncmp
0d01b710 g     F .text	00000080 alt_tse_get_mac_group_index
0d016574 g     F .text	00000044 alt_read_query_entry_16bit
0d015534 g     F .text	00000170 OSTimeDlyHMSM
0d039684 g     F .text	00000040 alt_remap_uncached
0d041d40 g     F .text	000000c0 ip_raw_close
0d0094f8 g     F .text	000001e8 __multiply
0d05273c g     O .rwdata	000000b0 mdlist
0d017fd4 g     F .text	00000074 altera_avalon_jtag_uart_close
0d0226d8 g     F .text	000000f8 igmp_input
0d03da1c g     F .text	000000d8 ip_raw_write
0d0478cc g     F .text	000003e8 vfwrite_locked
0d04a0c4 g     F .text	000000bc strncpy
0d052acc g     O .bss	00000004 dsc_offers
0d0531e8 g     O .bss	00000028 __malloc_current_mallinfo
0d0528be g     O .rwdata	00000002 OSEventMax
0d045f08 g     F .text	00000074 inet_setport
0d01686c g     F .text	000001e0 alt_set_flash_width_func
0d0090a4 g     F .text	0000017c __d2b
0d01364c g     F .text	00000128 OSSemPost
0d034518 g     F .text	00000190 tcp_dooptions
0d0529f4 g     O .bss	00000004 SSSLEDEventFlag
0d02fffc g     F .text	000000fc soisconnected
0d00e238 g     F .text	000000e4 OSSchedUnlock
0d041c00 g     F .text	00000028 netexit
0d001398 g     F .text	000001dc get_serial_number
0d052ab0 g     O .bss	00000004 nettick_wakes
0d01c8e0 g     F .text	00000054 alt_tse_phy_wr_mdio_addr
0d052b48 g     O .bss	00000001 tcpprintfs
0d03b0d0 g     F .text	000000a8 in_timerkill
0d0439bc g     F .text	00000160 igmpv2_input
0d052adc g     O .bss	00000004 dsc_declines
0d01797c g     F .text	00000058 altera_avalon_jtag_uart_read_fd
0d02429c g     F .text	0000002c do_trap
0d048a2c g     F .text	000000f4 alt_get_fd
0d023cac g     F .text	00000104 bsd_ioctl
0d052a54 g     O .bss	00000004 OSMemFreeList
0d00e38c g     F .text	000000ac OSStatInit
0d02ad0c g     F .text	000001ec tcp_rcv
0d024644 g     F .text	00000044 panic
0d052be8 g     O .bss	00000004 vfs_open_files
0d04862c g     F .text	0000012c alt_busy_sleep
0d021fd4 g     F .text	000001a4 ip2mac
0d010d6c g     F .text	000000d4 OSFlagQuery
0d00cd14 g     F .text	000000c8 __fpcmp_parts_d
0d031620 g     F .text	00000214 sock_select
0d045124 g     F .text	00000284 dhc_setup
0d035f04 g     F .text	00000058 tcp_init
0d052b24 g     O .bss	00000004 cticks
0d052ab9 g     O .bss	00000001 to_nettick
0d0528f4 g     O .rwdata	00000002 OSTaskCreateExtEn
0d00a644 g     F .text	00000070 _close_r
0d02129c g     F .text	0000064c Netinit
0d029dc0 g     F .text	00000038 prep_armintcp
0d04187c g     F .text	00000168 in_addmulti
0d035f5c g     F .text	00000118 tcp_template
0d01ec88 g     F .text	0000031c alt_tse_phy_get_common_speed
0d02aafc g     F .text	00000070 remque
0d03a0e4 g     F .text	00000218 alt_erase_block_amd
0d04a3e8 g     F .text	00000014 _vprintf_r
0d031bbc g     F .text	00000408 tcp_reass
0d0460c8 g     F .text	000001cc tcp_cksum
0d0382a4 g     F .text	000003dc udp4_socksend
0d047138 g     F .text	000001a8 vfclose_locked
0d031a58 g     F .text	00000074 ifd_set
0d049ed4 g     F .text	00000074 memcmp
0d00e698 g     F .text	0000001c OS_Dummy
0d017a2c g     F .text	00000048 altera_avalon_jtag_uart_close_fd
0d028398 g     F .text	000000b0 dhc_set_state
0d052a90 g     O .bss	00000004 NDEBUG
0d05d61c g       *ABS*	00000000 __alt_stack_base
0d0529e4 g     O .bss	00000004 last_flash_sector
0d017a74 g     F .text	00000050 altera_avalon_jtag_uart_ioctl_fd
0d030884 g     F .text	00000060 sbreserve
0d052a81 g     O .bss	00000001 mac_group_count
0d041e00 g     F .text	00000238 ip_raw_input
0d0024fc g     F .text	0000009c _fwrite_r
0d052960 g     O .rwdata	00000004 lilbufsiz
0d031b4c g     F .text	00000070 ifd_get
0d030768 g     F .text	0000009c sbwakeup
0d00564c g     F .text	0000013c __swsetup_r
0d0170f4 g     F .text	000007ac alt_read_cfi_width
0d05aa9c g     O .bss	000001e0 OSQTbl
0d0347d4 g     F .text	0000026c tcp_xmit_timer
0d020ae0 g     F .text	000001a8 tse_sgdma_read_init
0d00be00 g     F .text	00000258 __divdf3
0d007354 g     F .text	000000f0 __sfp
0d001720 g     F .text	0000013c generate_mac_addr
0d03cb00 g     F .text	000001a4 ip_bldhead
0d008f08 g     F .text	00000058 __copybits
0d03092c g     F .text	000000a8 sbappend
0d050dec g     O .rwdata	00000408 __malloc_av_
0d0071e8 g     F .text	00000004 __sinit_lock_release
0d052a58 g     O .bss	00000004 OSTCBHighRdy
0d00ba3c g     F .text	000003c4 __muldf3
0d03d66c g     F .text	000003b0 ip_write2
0d00a3fc g     F .text	00000060 __sread
0d0529c0 g     O .rwdata	00000004 arp_ageout
0d052a5c g     O .bss	00000004 OSQFreeList
0d01d694 g     F .text	00000418 alt_tse_mac_get_phy
0d03ca04 g     F .text	000000fc ip_init
0d04890c g     F .text	00000120 alt_find_file
0d042104 g     F .text	00000040 ip_raw_free
0d03bbd8 g     F .text	00000114 make_arp_entry
0d038b30 g     F .text	000000b4 alt_dev_llist_insert
0d00d4dc g     F .text	00000108 __malloc_lock
0d0024c8 g     F .text	00000034 _fprintf_r
0d00d318 g     F .text	000000bc sbrk
0d037abc g     F .text	00000070 udp_lookup
0d019bc0 g     F .text	00000054 alt_avalon_sgdma_start
0d00d7e4 g     F .text	00000144 OSEventNameSet
0d006f54 g     F .text	000001fc _fflush_r
0d01b9e8 g     F .text	00000098 alt_tse_mac_set_duplex
0d00a590 g     F .text	000000b4 _calloc_r
0d052a60 g     O .bss	00000001 OSRdyGrp
0d045524 g     F .text	00000028 md_fopen
0d052504 g     O .rwdata	00000018 udp_protosw
0d0528a0 g     O .rwdata	00000008 alt_flash_dev_list
0d016700 g     F .text	00000044 alt_write_flash_command_16bit_device_16bit_mode
0d046840 g     F .text	0000007c in_setsockaddr
0d0529dc g       *ABS*	00000000 __bss_start
0d00108c g     F .text	00000074 LED7SegLightshowTask
0d0309d4 g     F .text	000000e0 sbappendrecord
0d05d3ac g     O .bss	00000050 ip_mib
0d002880 g     F .text	00000098 memset
0d02e518 g     F .text	000000a0 sodisconnect
0d000f24 g     F .text	0000007c main
0d052a1c g     O .bss	00000004 alt_envp
0d052a0c g     O .bss	00000004 __malloc_max_total_mem
0d001ca0 g     F .text	00000070 sss_reset_connection
0d02a82c g     F .text	000001d0 m_adj
0d0179d4 g     F .text	00000058 altera_avalon_jtag_uart_write_fd
0d005630 g     F .text	0000001c __swbuf
0d0457bc g     F .text	000000d8 md_fgetc
0d04c6c8 g     O .rodata	00000100 OSUnMapTbl
0d03e654 g     F .text	000002b8 ip_dump
0d025300 g     F .text	00000208 tk_stats
0d05293c g     O .rwdata	00000008 alt_iniche_dev_list
0d057284 g     O .bss	00000078 SSSLEDCommandQTbl
0d0194a8 g     F .text	00000164 altera_avalon_lcd_16207_init
0d052930 g     O .rwdata	00000008 alt_sgdma_list
0d0528ee g     O .rwdata	00000002 OSSemEn
0d052b0c g     O .bss	00000004 OS_TPS
0d02bc38 g     F .text	000007e8 rawip_usrreq
0d0109c4 g     F .text	000003a8 OSFlagPost
0d00a310 g     F .text	00000008 __sclose
0d045de4 g     F .text	00000060 print46_addr
0d800000 g       *ABS*	00000000 __alt_heap_limit
0d00a7c4 g     F .text	00000014 fclose
0d00e848 g     F .text	00000110 OS_EventTaskWait
0d04a180 g     F .text	00000244 _strtol_r
0d024500 g     F .text	00000144 print_uptime
0d00f434 g     F .text	000000c8 OS_TaskStatStkChk
0d05d48c g     O .bss	00000190 _atexit0
0d0146fc g     F .text	00000170 OSTaskDelReq
0d0059a0 g     F .text	000015b4 _dtoa_r
0d008244 g     F .text	00000740 _malloc_r
0d045894 g     F .text	00000024 md_unlink
0d01a768 g     F .text	00000094 tse_mac_SwReset
0d046328 g     F .text	00000054 in_pcbdetach
0d0529a0 g     O .rwdata	00000004 alt_errno
0d0529d0 g     O .rwdata	00000004 mdlist_size
0d00e31c g     F .text	00000070 OSStart
0d01678c g     F .text	00000048 alt_write_flash_command_32bit_device_32bit_mode
0d044a78 g     F .text	00000030 u_mctest_init
0d00d480 g     F .text	0000005c __env_unlock
0d007f34 g     F .text	000000b8 _fwalk
0d014be8 g     F .text	00000218 OSTaskResume
0d0118e0 g     F .text	000000fc OSMemQuery
0d045f7c g     F .text	0000014c convert_ip
0d03ba30 g     F .text	000001a8 find_oldest_arp
0d052900 g     O .rwdata	00000002 OSTaskStatEn
0d052b88 g     O .bss	00000004 arpReqsIn
0d046d30 g     F .text	00000050 vf_free_buffer
0d0160e8 g     F .text	00000164 alt_write_value_to_flash
0d048758 g     F .text	00000154 alt_fcntl
0d0528da g     O .rwdata	00000002 OSMemMax
0d0127f8 g     F .text	00000188 OSQPostFront
0d016808 g     F .text	00000034 alt_write_native_16bit
0d0293e8 g     F .text	00000030 dtrap
0d05296c g     O .rwdata	00000004 kb_last
0d002a10 g     F .text	00000104 putc
0d00c6e0 g     F .text	00000060 __divsi3
0d01b64c g     F .text	00000048 alt_tse_mac_set_common_speed
0d052a61 g     O .bss	00000003 OSRdyTbl
0d0528b4 g     O .rwdata	00000002 OSDebugEn
0d04c5a4 g     O .rodata	00000014 __thenan_df
0d0224c8 g     F .text	000000d0 ip_exit
0d007590 g     F .text	0000012c _malloc_trim_r
0d04a854 g       *ABS*	00000000 __CTOR_END__
0d0528cc g     O .rwdata	00000002 OSFlagNodeSize
0d052ac0 g     O .bss	00000004 dhc_conn
0d02957c g     F .text	0000006c cticks_hook
0d052914 g     O .rwdata	00000002 OSTmrCfgMax
0d03ac10 g     F .text	00000034 sysuptime
0d00a45c g     F .text	000000bc strcmp
0d001574 g     F .text	000001ac generate_and_store_mac_addr
0d040394 g     F .text	000001c8 ip_reasm_delete_ire
0d011c00 g     F .text	00000214 OSQCreate
0d0295e8 g     F .text	0000005c irq_Mask
0d01486c g     F .text	000001b8 OSTaskNameGet
0d052b74 g     O .bss	00000004 nextppp
0d052b00 g     O .bss	00000004 irq_level
0d0218e8 g     F .text	00000160 fixup_subnet_mask
0d012980 g     F .text	00000234 OSQPostOpt
0d00e438 g     F .text	00000240 OSTimeTick
0d03eb78 g     F .text	00000138 ip_copypkt
0d028294 g     F .text	00000090 dhc_alldone
0d0528fc g     O .rwdata	00000002 OSTaskMax
0d04a854 g       *ABS*	00000000 __DTOR_LIST__
0d012ea0 g     F .text	00000114 OSSemCreate
0d052aa4 g     O .bss	00000004 igmp_all_hosts_group
0d052920 g     O .rwdata	00000002 OSTmrWheelSize
0d0306c8 g     F .text	00000038 sbselqueue
0d052aac g     O .bss	00000004 netmain_wakes
0d03bf80 g     F .text	00000260 arprcv
0d024f4c g     F .text	00000070 TK_OSTaskResume
0d023264 g     F .text	000003e0 igmp_print_stats
0d00c0e0 g     F .text	00000088 __nedf2
0d02a078 g     F .text	000000a0 pffindtype
0d0528f6 g     O .rwdata	00000002 OSTaskDelEn
0d052984 g     O .rwdata	00000004 tcp_sendspace
0d047e90 g     F .text	00000134 vftell
0d05cb08 g     O .bss	00000012 eth_prt_buf
0d013774 g     F .text	00000130 OSSemQuery
0d011e14 g     F .text	00000300 OSQDel
0d0124fc g     F .text	0000017c OSQPendAbort
0d01597c g     F .text	00000034 alt_irq_init
0d01b60c g     F .text	00000040 alt_tse_mac_get_common_speed
0d05cf70 g     O .bss	00000018 app_semaphore
0d0395ec g     F .text	00000060 alt_release_fd
0d029a98 g     F .text	00000078 post_app_sem
0d022628 g     F .text	000000b0 igmp_init
0d002d34 g     F .text	00000074 sprintf
0d04c5b8 g     O .rodata	00000100 __clz_tab
0d052ae8 g     O .bss	00000004 dsc_renew
0d0456ec g     F .text	00000080 md_fwrite
0d052a00 g     O .bss	00000004 _PathLocale
0d052b10 g     O .bss	00000004 tcp_sleep_count
0d02ab6c g     F .text	0000007c insque
0d049e2c g     F .text	00000014 atexit
0d052bdc g     O .bss	00000004 vfsfiles
0d00a518 g     F .text	00000078 _write_r
0d04a41c g     F .text	00000050 _vsprintf_r
0d0430e8 g     F .text	000002b8 udp_send
0d00e1ac g     F .text	0000008c OSSchedLock
0d022968 g     F .text	000002a8 igmp_send
0d008094 g     F .text	0000001c setlocale
0d00fc9c g     F .text	0000013c OSFlagCreate
0d0572fc g     O .bss	00002000 LEDManagementTaskStk
0d029644 g     F .text	00000044 irq_Unmask
0d02c678 g     F .text	000000e4 t_listen
0d052888 g     O .rwdata	00000004 _impure_ptr
0d0508a8 g     O .rwdata	00000018 ssstask
0d052a14 g     O .bss	00000004 alt_argc
0d037084 g     F .text	00000704 tcp_usrreq
0d037ce4 g     F .text	00000284 udp_usrreq
0d029fd8 g     F .text	00000054 ncpalloc
0d038ca8 g     F .text	00000064 _do_dtors
0d000000 g       *ABS*	00000000 __alt_mem_ssram32_0
0d0528c6 g     O .rwdata	00000002 OSEventMultiEn
0d0529b8 g     O .rwdata	00000004 pingdelay
0d03b524 g     F .text	00000074 arp_send_pending
0d05c520 g     O .bss	000000e0 tse_mac_if
0d0436cc g     F .text	000002f0 igmpv1_input
0d00a050 g     F .text	000001c4 __srefill_r
0d029d2c g     F .text	00000074 pre_task_setup
0d052b30 g     O .bss	00000004 rcvdq_sem_ptr
0d0238a8 g     F .text	0000012c bsd_getsockname
0d04055c g     F .text	00000148 ip_reasm_mark_compact_rfq
0d0019f0 g     F .text	00000144 FindLastFlashSectorOffset
0d00fdd8 g     F .text	000002a8 OSFlagDel
0d052a64 g     O .bss	00000004 OSEventFreeList
0d025654 g     F .text	00000044 dhc_set_callback
0d000120 g       .exceptions	00000000 alt_irq_entry
0d052b84 g     O .bss	00000004 arpcache
0d049754 g     F .text	00000350 icmp_destun
0d041afc g     F .text	00000070 lookup_mcast
0d048264 g     F .text	00000048 vfslookup
0d04144c g     F .text	00000430 ip_demux
0d008c24 g     F .text	00000080 __ulp
0d00a230 g     F .text	00000040 __isinfd
0d052b14 g     O .bss	00000004 tcp_wakeup_count
0d010318 g     F .text	00000644 OSFlagPend
0d052912 g     O .rwdata	00000002 OSTmrEn
0d0072a0 g     F .text	00000018 __fp_unlock_all
0d0299e4 g     F .text	000000b4 wait_app_sem
0d01960c g     F .text	00000058 altera_avalon_lcd_16207_write_fd
0d007444 g     F .text	00000064 fputc
0d052944 g     O .rwdata	00000004 ipmcfail_str
0d052b28 g     O .bss	00000004 memtrapsize
0d02a508 g     F .text	00000324 m_copy
0d05298c g     O .rwdata	00000008 alt_fs_list
0d05cfec g     O .bss	00000014 mfreeq
0d00f238 g     F .text	00000080 OS_StrCopy
0d02dde8 g     F .text	0000005c sobind
0d0454ac g     F .text	00000078 init_memdev
0d0529dc g     O .bss	00000001 to_ssstask
0d0166b8 g     F .text	00000048 alt_write_flash_command_32bit_device_8bit_mode
0d02abe8 g     F .text	00000124 nptcp_init
0d0528dc g     O .rwdata	00000002 OSMemNameSize
0d05ce40 g     O .bss	000000f0 global_TCPwakeup_set
0d03a024 g     F .text	0000001c OSInitHookEnd
0d030184 g     F .text	000000bc soisdisconnected
0d03b49c g     F .text	00000088 arp_free_pending
0d052908 g     O .rwdata	00000002 OSTCBPrioTblMax
0d008000 g     F .text	00000010 localeconv
0d02e064 g     F .text	000002f4 soclose
0d05cd30 g     O .bss	00000014 bigfreeq
0d052904 g     O .rwdata	00000002 OSTaskStatStkChkEn
0d0529b4 g     O .rwdata	00000004 prompt
0d05297c g     O .rwdata	00000004 tcp_keepidle
0d01eaf0 g     F .text	00000198 alt_tse_phy_set_adv_10
0d02ba64 g     F .text	000001d4 rawip_soinput
0d038da0 g     F .text	00000050 alt_ic_isr_register
0d047cb4 g     F .text	00000060 vfwrite
0d0528d8 g     O .rwdata	00000002 OSMemEn
0d03045c g     F .text	000000ac soqinsque
0d052bb8 g     O .bss	00000004 so_evtmap_delete
0d002598 g     F .text	00000040 fwrite
0d0528e2 g     O .rwdata	00000002 OSMutexEn
0d052ba4 g     O .bss	00000004 h_ireq
0d0529dc g       *ABS*	00000000 _edata
0d03df7c g     F .text	0000062c ip_fragment
0d021070 g     F .text	00000144 iniche_devices_init
0d05d000 g     O .bss	00000028 tcp_saveti
0d024a34 g     F .text	000000f8 con_page
0d05d61c g       *ABS*	00000000 _end
0d02fa0c g     F .text	00000540 sogetopt
0d00cddc g     F .text	0000007c alt_flash_open_dev
0d052a68 g     O .bss	00000001 OSIntNesting
0d01daac g     F .text	00000238 alt_tse_mac_associate_phy
0d0524bc g     O .rwdata	00000030 nettasks
0d028be4 g     F .text	00000020 pk_get_max_intrsafe_buf_len
0d03e90c g     F .text	0000026c iproute
0d02b530 g     F .text	000000e8 np_stripoptions
0d052bbc g     O .bss	00000001 so_evtmap
0d018048 g     F .text	000000f4 altera_avalon_jtag_uart_ioctl
0d007500 g     F .text	00000074 _fputs_r
0d0156a4 g     F .text	00000210 OSTimeDlyResume
0d001bdc g     F .text	000000c4 SSSCreateTasks
0d042324 g     F .text	00000428 add_route
0d0101c4 g     F .text	00000154 OSFlagNameSet
0d021f04 g     F .text	000000d0 c_older
0d030ea4 g     F .text	00000090 sbflush
0d04554c g     F .text	00000020 md_fclose
0d0252d4 g     F .text	0000002c tk_yield
0d001ea0 g     F .text	000000c0 sss_handle_accept
0d014e00 g     F .text	000001fc OSTaskStkChk
0d038e8c g     F .text	000000a0 alt_ic_irq_disable
0d02e5b8 g     F .text	00000608 sosend
0d0528de g     O .rwdata	00000002 OSMemSize
0d03e5a8 g     F .text	000000ac ip_mymach
0d019d94 g     F .text	00000088 alt_avalon_sgdma_construct_descriptor
0d00a380 g     F .text	0000007c __swrite
0d052afc g     O .bss	00000004 cticks_initialized
0d0529bc g     O .rwdata	00000004 deflength
0d02d4e0 g     F .text	0000022c t_sendto
0d052898 g     O .rwdata	00000004 __malloc_trim_threshold
0d002918 g     F .text	0000006c _perror_r
0d052a6c g     O .bss	00000004 OSTCBCur
0d02dc1c g     F .text	000001cc socreate
0d049e74 g     F .text	00000038 exit
0d05d298 g     O .bss	00000100 arp_table
0d052bf4 g     O .bss	00000004 icmpdu_hook
0d0528e0 g     O .rwdata	00000002 OSMemTblSize
0d007e6c g     F .text	000000c8 _fwalk_reent
0d03b178 g     F .text	00000024 create_apptasks
0d052978 g     O .rwdata	00000004 tcp_ttl
0d009220 g     F .text	0000018c __mdiff
0d00ce58 g     F .text	00000054 alt_flash_close_dev
0d02a02c g     F .text	0000004c ncpfree
0d00c740 g     F .text	00000060 __modsi3
0d052a88 g     O .bss	00000004 MaxLnh
0d01a854 g     F .text	00000054 tse_mac_setGMIImode
0d045d58 g     F .text	0000008c inet_ntop
0d043660 g     F .text	0000002c udp_maxalloc
0d01f530 g     F .text	000000f4 marvell_cfg_gmii
0d800000 g       *ABS*	00000000 __alt_data_end
0d000120 g     F .exceptions	00000000 alt_exception
0d0071e0 g     F .text	00000004 __sfp_lock_release
0d00dfdc g     F .text	00000054 OSInit
0d01dce4 g     F .text	00000120 alt_tse_phy_cfg_pcs
0d015228 g     F .text	00000144 OSTaskQuery
0d03aa38 g     F .text	00000088 icmp_port_du
0d052b58 g     O .bss	00000004 tcp_iss
0d012d34 g     F .text	000000ac OS_QInit
0d049e4c g     F .text	0000000c atoi
0d052968 g     O .rwdata	00000004 bigbufsiz
0d00f2b8 g     F .text	00000058 OS_StrLen
0d0367f4 g     F .text	00000080 tcp_putseq
0d0116d0 g     F .text	00000120 OSMemNameSet
0d04b97c g     O .rodata	00000101 _ctype_
0d030ab4 g     F .text	00000208 sbappendaddr
08000000 g       *ABS*	00000000 __alt_mem_ext_flash
0d052bec g     O .bss	00000004 vfs_total_rw_space
0d0448b4 g     F .text	00000140 ip_getmoptions
0d0528fa g     O .rwdata	00000002 OSTaskProfileEn
0d0433a0 g     F .text	00000130 udpswap
0d052a70 g     O .bss	00000004 OSTime
0d052b34 g     O .bss	00000004 nextslow
0d0368ec g     F .text	000002a0 tcp_slowtimo
0d0364fc g     F .text	00000118 tcp_newtcpcb
0d03c1e0 g     F .text	000001a8 send_via_arp
0d025598 g     F .text	000000bc dhc_init
0d03fef0 g     F .text	00000064 ip_reasm_find_ire
0d05ac7c g     O .bss	00000800 OSTaskIdleStk
0d04a7b8 g     F .text	0000002c _exit
0d048494 g     F .text	00000064 isvfile_locked
0d00a270 g     F .text	00000030 __isnand
0d023f40 g     F .text	00000158 bsd_select
0d0387dc g     F .text	00000154 alt_alarm_start
0d010080 g     F .text	00000144 OSFlagNameGet
0d04368c g     F .text	00000040 udp_free
0d028cb0 g     F .text	000000c8 getq
0d048608 g     F .text	00000024 prep_vfs
0d0158b4 g     F .text	00000064 OSTimeGet
0d0529b0 g     O .rwdata	00000004 name
0d031104 g     F .text	00000110 sbdropend
0d00c7b0 g     F .text	00000098 __muldi3
0d0080b0 g     F .text	00000194 __smakebuf_r
0d01683c g     F .text	00000030 alt_write_native_32bit
0d03c388 g     F .text	00000118 cb_arpent_tmo
0d00355c g     F .text	00000074 strlen
0d04417c g     F .text	00000148 IPADDR_TO_NETP
0d023db0 g     F .text	00000030 bsd_inet_ntoa
0d039fa8 g     F .text	0000001c OSTaskSwHook
0d039284 g     F .text	00000188 open
0d028f38 g     F .text	00000238 udp_open
0d05b47c g     O .bss	00000b40 OSEventTbl
0d030628 g     F .text	00000050 socantsendmore
0d052bf0 g     O .bss	00000004 vfs_total_dyna_files
0d00c1f0 g     F .text	00000088 __gedf2
0d05bfbc g     O .bss	00000510 OSTCBTbl
0d052b8c g     O .bss	00000004 arpReqsOut
0d0138a4 g     F .text	00000104 OSSemSet
0d0529d8 g     O .rwdata	00000004 http_root_path
0d027784 g     F .text	000002bc dhc_extract_opts
0d03f3cc g     F .text	00000590 ip_reasm_compute_overlap
0d015ff0 g     F .text	00000090 alt_flash_cfi_get_info
0d01a6c4 g     F .text	000000a4 tse_mac_aRxRead
0d002e08 g     F .text	000000e0 strchr
0d05cb1a g     O .bss	00000012 ipreturn
0d052bac g     O .bss	00000004 port_prep
0d05253f g     O .rwdata	0000000d tcp_backoff
0d02ff90 g     F .text	0000006c soisconnecting
0d000eac g     F .text	00000078 SSSInitialTask
0d007574 g     F .text	0000001c fputs
0d0529a4 g     O .rwdata	00000004 alt_priority_mask
0d043c68 g     F .text	0000024c igmpv2_process_query
0d0312a8 g     F .text	00000220 t_select
0d012fb4 g     F .text	000002a0 OSSemDel
0d038680 g     F .text	0000015c udp4_sockaddr
0d052a74 g     O .bss	00000004 OSFlagFreeList
0d0465d0 g     F .text	00000210 in_pcbconnect
0d052b4c g     O .bss	00000004 dropline
0d052ba8 g     O .bss	00000004 ire_cticks
0d038df0 g     F .text	0000009c alt_ic_irq_enable
0d0528c0 g     O .rwdata	00000002 OSEventNameSize
0d0054dc g     F .text	00000024 __vfprintf_internal
0d024e4c g     F .text	00000088 tk_netmain
0d0467e0 g     F .text	00000060 in_pcbdisconnect
0d052a78 g     O .bss	00000001 OSStatRdy
0d05c4cc g     O .bss	00000054 OSTCBPrioTbl
0d00d3d4 g     F .text	000000ac __env_lock
0d052906 g     O .rwdata	00000002 OSTaskSwHookEn
0d052718 g     O .rwdata	00000024 mdio
0d01b8fc g     F .text	000000ec alt_tse_mac_set_speed
0d019934 g     F .text	00000080 alt_avalon_sgdma_construct_mem_to_mem_desc_burst
0d023644 g     F .text	00000138 bsd_accept
0d052988 g     O .rwdata	00000004 tcp_recvspace
0d00b948 g     F .text	00000080 __subdf3
0d037a70 g     F .text	0000004c tcpinit
0d052aa8 g     O .bss	00000004 igmp_all_rtrs_group
0d02b9f4 g     F .text	00000070 rawip_lookup
0d03b21c g     F .text	000000b0 fcntl
0d008b00 g     F .text	000000c4 __lo0bits
0d030cbc g     F .text	000001e8 sbcompress
0d0529a8 g     O .rwdata	00000008 alt_alarm_list
0d036614 g     F .text	000000ac tcp_drop
0d0528ce g     O .rwdata	00000002 OSFlagWidth
0d038c44 g     F .text	00000064 _do_ctors
0d01e8e0 g     F .text	00000210 alt_tse_phy_set_adv_100
0d036be8 g     F .text	0000049c tcp_timers
0d022598 g     F .text	00000090 if_netnumber
0d0449f4 g     F .text	00000084 ip_freemoptions
0d02ff4c g     F .text	00000044 sohasoutofband
0d031fc4 g     F .text	00002554 tcp_input
0d02377c g     F .text	0000012c bsd_getpeername
0d023de0 g     F .text	00000160 bsd_recvfrom
0d02101c g     F .text	00000054 close
0d052ad8 g     O .bss	00000004 dsc_bpreplys
0d03a07c g     F .text	00000068 alt_program_amd
0d052a24 g     O .bss	00000004 alt_envsem
0d052a7c g     O .bss	00000004 OSIdleCtrRun
0d00e678 g     F .text	00000020 OSVersion
0d052918 g     O .rwdata	00000002 OSTmrCfgWheelSize
0d01536c g     F .text	0000007c OS_TaskStkClr
0d046b94 g     F .text	00000028 set_vfopen_error
0d00c8c8 g     F .text	00000314 __pack_d
0d0528f2 g     O .rwdata	00000002 OSTaskCreateEn
0d01b694 g     F .text	0000007c alt_tse_get_system_index
0d05251c g     O .rwdata	00000018 rawip_protosw
0d030700 g     F .text	00000068 sbwait
0d00ec68 g     F .text	00000068 OS_EventWaitListInit
0d027a40 g     F .text	0000059c dhc_second
0d01a39c g     F .text	000000ac alt_avalon_sgdma_init
0d052b78 g     O .bss	00000004 port_1s_callout
0d03a040 g     F .text	0000001c OSTaskIdleHook
0d049eac g     F .text	00000014 free
0d0071e4 g     F .text	00000004 __sinit_lock_acquire
0d052a84 g     O .bss	00000001 number_of_tse_mac
0d00971c g     F .text	00000100 __multadd
0d014ffc g     F .text	0000022c OSTaskSuspend
0d008a68 g     F .text	00000028 _Bfree
0d01a548 g     F .text	0000002c no_printf
0d030240 g     F .text	0000021c sonewconn
0d048b20 g     F .text	00000c34 icmprcv
0d02a118 g     F .text	000000d0 pffindproto
0d00f310 g     F .text	0000005c OS_TaskIdle
0d05291e g     O .rwdata	00000002 OSTmrTblSize
0d012bb4 g     F .text	00000180 OSQQuery



Disassembly of section .exceptions:

0d000120 <alt_exception>:
         * Process an exception.  For all exceptions we must preserve all
         * caller saved registers on the stack (See the Nios2 ABI
         * documentation for details).
         */

        addi  sp, sp, -76
 d000120:	deffed04 	addi	sp,sp,-76

#endif

#endif

        stw   ra,  0(sp)
 d000124:	dfc00015 	stw	ra,0(sp)
        /*
         * Leave a gap in the stack frame at 4(sp) for the muldiv handler to
         * store zero into.
         */

        stw   r1,   8(sp)
 d000128:	d8400215 	stw	at,8(sp)
        stw   r2,  12(sp)
 d00012c:	d8800315 	stw	r2,12(sp)
        stw   r3,  16(sp)
 d000130:	d8c00415 	stw	r3,16(sp)
        stw   r4,  20(sp)
 d000134:	d9000515 	stw	r4,20(sp)
        stw   r5,  24(sp)
 d000138:	d9400615 	stw	r5,24(sp)
        stw   r6,  28(sp)
 d00013c:	d9800715 	stw	r6,28(sp)
        stw   r7,  32(sp)
 d000140:	d9c00815 	stw	r7,32(sp)

        rdctl r5, estatus
 d000144:	000b307a 	rdctl	r5,estatus

        stw   r8,  36(sp)
 d000148:	da000915 	stw	r8,36(sp)
        stw   r9,  40(sp)
 d00014c:	da400a15 	stw	r9,40(sp)
        stw   r10, 44(sp)
 d000150:	da800b15 	stw	r10,44(sp)
        stw   r11, 48(sp)
 d000154:	dac00c15 	stw	r11,48(sp)
        stw   r12, 52(sp)
 d000158:	db000d15 	stw	r12,52(sp)
        stw   r13, 56(sp)
 d00015c:	db400e15 	stw	r13,56(sp)
        stw   r14, 60(sp)
 d000160:	db800f15 	stw	r14,60(sp)
        stw   r15, 64(sp)
 d000164:	dbc01015 	stw	r15,64(sp)
        /*
         * ea-4 contains the address of the instruction being executed
         * when the exception occured. For interrupt exceptions, we will
         * will be re-issue the isntruction. Store it in 72(sp)
         */
        stw   r5,  68(sp)  /* estatus */
 d000168:	d9401115 	stw	r5,68(sp)
        addi  r15, ea, -4  /* instruction that caused exception */
 d00016c:	ebffff04 	addi	r15,ea,-4
        stw   r15,  72(sp)
 d000170:	dbc01215 	stw	r15,72(sp)
#else
        /*
         * Test to see if the exception was a software exception or caused 
         * by an external interrupt, and vector accordingly.
         */
        rdctl r4, ipending
 d000174:	0009313a 	rdctl	r4,ipending
        andi  r2, r5, 1
 d000178:	2880004c 	andi	r2,r5,1
        beq   r2, zero, .Lnot_irq
 d00017c:	10000326 	beq	r2,zero,d00018c <alt_exception+0x6c>
        beq   r4, zero, .Lnot_irq
 d000180:	20000226 	beq	r4,zero,d00018c <alt_exception+0x6c>
        /*
         * Now that all necessary registers have been preserved, call 
         * alt_irq_handler() to process the interrupts.
         */

        call alt_irq_handler
 d000184:	d0001ec0 	call	d0001ec <alt_irq_handler>

        .section .exceptions.irqreturn, "xa"

        br    .Lexception_exit
 d000188:	00000306 	br	d000198 <alt_exception+0x78>
         * upon completion, so we write ea (address of instruction *after*
         * the one where the exception occured) into 72(sp). The actual
         * instruction that caused the exception is written in r2, which these
         * handlers will utilize.
         */
        stw   ea,  72(sp)  /* Don't re-issue */
 d00018c:	df401215 	stw	ea,72(sp)
        ldw   r2, -4(ea)   /* Instruction that caused exception */
 d000190:	e8bfff17 	ldw	r2,-4(ea)
#ifdef NIOS2_HAS_DEBUG_STUB
       /*
        *  Either tell the user now (if there is a debugger attached) or go into
        *  the debug monitor which will loop until a debugger is attached.
        */
        break
 d000194:	003da03a 	break	0
        /* 
         * Restore the saved registers, so that all general purpose registers 
         * have been restored to their state at the time the interrupt occured.
         */

        ldw   r5,  68(sp)
 d000198:	d9401117 	ldw	r5,68(sp)
        ldw   ea,  72(sp)  /* This becomes the PC once eret is executed */
 d00019c:	df401217 	ldw	ea,72(sp)
        ldw   ra,   0(sp)
 d0001a0:	dfc00017 	ldw	ra,0(sp)

        wrctl estatus, r5
 d0001a4:	2801707a 	wrctl	estatus,r5

        ldw   r1,   8(sp)
 d0001a8:	d8400217 	ldw	at,8(sp)
        ldw   r2,  12(sp)
 d0001ac:	d8800317 	ldw	r2,12(sp)
        ldw   r3,  16(sp)
 d0001b0:	d8c00417 	ldw	r3,16(sp)
        ldw   r4,  20(sp)
 d0001b4:	d9000517 	ldw	r4,20(sp)
        ldw   r5,  24(sp)
 d0001b8:	d9400617 	ldw	r5,24(sp)
        ldw   r6,  28(sp)
 d0001bc:	d9800717 	ldw	r6,28(sp)
        ldw   r7,  32(sp)
 d0001c0:	d9c00817 	ldw	r7,32(sp)
#ifdef ALT_STACK_CHECK
        ldw   et, %gprel(alt_exception_old_stack_limit)(gp)
#endif
#endif

        ldw   r8,  36(sp)
 d0001c4:	da000917 	ldw	r8,36(sp)
        ldw   r9,  40(sp)
 d0001c8:	da400a17 	ldw	r9,40(sp)
        ldw   r10, 44(sp)
 d0001cc:	da800b17 	ldw	r10,44(sp)
        ldw   r11, 48(sp)
 d0001d0:	dac00c17 	ldw	r11,48(sp)
        ldw   r12, 52(sp)
 d0001d4:	db000d17 	ldw	r12,52(sp)
        ldw   r13, 56(sp)
 d0001d8:	db400e17 	ldw	r13,56(sp)
        ldw   r14, 60(sp)
 d0001dc:	db800f17 	ldw	r14,60(sp)
        ldw   r15, 64(sp)
 d0001e0:	dbc01017 	ldw	r15,64(sp)
#endif

        ldw   sp,  76(sp)

#else
        addi  sp, sp, 76
 d0001e4:	dec01304 	addi	sp,sp,76

        /*
         * Return to the interrupted instruction.
         */

        eret
 d0001e8:	ef80083a 	eret

0d0001ec <alt_irq_handler>:
 * instruction is present if the macro ALT_CI_INTERRUPT_VECTOR defined.
 */

void alt_irq_handler (void) __attribute__ ((section (".exceptions")));
void alt_irq_handler (void)
{
 d0001ec:	defff904 	addi	sp,sp,-28
 d0001f0:	dfc00615 	stw	ra,24(sp)
 d0001f4:	df000515 	stw	fp,20(sp)
 d0001f8:	df000504 	addi	fp,sp,20
  
  /*
   * Notify the operating system that we are at interrupt level.
   */ 
  
  ALT_OS_INT_ENTER();
 d0001fc:	d00e0300 	call	d00e030 <OSIntEnter>
#ifndef NIOS2_EIC_PRESENT
static ALT_INLINE alt_u32 ALT_ALWAYS_INLINE alt_irq_pending (void)
{
  alt_u32 active;

  NIOS2_READ_IPENDING (active);
 d000200:	0005313a 	rdctl	r2,ipending
 d000204:	e0bffc15 	stw	r2,-16(fp)

  return active;
 d000208:	e0bffc17 	ldw	r2,-16(fp)
   * Consider the case where the high priority interupt is asserted during
   * the interrupt entry sequence for a lower priority interrupt to see why
   * this is the case.
   */

  active = alt_irq_pending ();
 d00020c:	e0bfff15 	stw	r2,-4(fp)

  do
  {
    i = 0;
 d000210:	e03ffd15 	stw	zero,-12(fp)
    mask = 1;
 d000214:	00800044 	movi	r2,1
 d000218:	e0bffe15 	stw	r2,-8(fp)
     * called to clear the interrupt condition.
     */

    do
    {
      if (active & mask)
 d00021c:	e0ffff17 	ldw	r3,-4(fp)
 d000220:	e0bffe17 	ldw	r2,-8(fp)
 d000224:	1884703a 	and	r2,r3,r2
 d000228:	1005003a 	cmpeq	r2,r2,zero
 d00022c:	1000161e 	bne	r2,zero,d000288 <alt_irq_handler+0x9c>
      { 
#ifdef ALT_ENHANCED_INTERRUPT_API_PRESENT
        alt_irq[i].handler(alt_irq[i].context); 
 d000230:	e0bffd17 	ldw	r2,-12(fp)
 d000234:	00c341b4 	movhi	r3,3334
 d000238:	18f44d04 	addi	r3,r3,-11980
 d00023c:	100490fa 	slli	r2,r2,3
 d000240:	10c5883a 	add	r2,r2,r3
 d000244:	11400017 	ldw	r5,0(r2)
 d000248:	e0bffd17 	ldw	r2,-12(fp)
 d00024c:	00c341b4 	movhi	r3,3334
 d000250:	18f44d04 	addi	r3,r3,-11980
 d000254:	100490fa 	slli	r2,r2,3
 d000258:	10c5883a 	add	r2,r2,r3
 d00025c:	10800104 	addi	r2,r2,4
 d000260:	11000017 	ldw	r4,0(r2)
 d000264:	283ee83a 	callr	r5
#ifndef NIOS2_EIC_PRESENT
static ALT_INLINE alt_u32 ALT_ALWAYS_INLINE alt_irq_pending (void)
{
  alt_u32 active;

  NIOS2_READ_IPENDING (active);
 d000268:	0005313a 	rdctl	r2,ipending
 d00026c:	e0bffb15 	stw	r2,-20(fp)

  return active;
 d000270:	e0bffb17 	ldw	r2,-20(fp)
      mask <<= 1;
      i++;

    } while (1);

    active = alt_irq_pending ();
 d000274:	e0bfff15 	stw	r2,-4(fp)
    
  } while (active);
 d000278:	e0bfff17 	ldw	r2,-4(fp)
 d00027c:	1004c03a 	cmpne	r2,r2,zero
 d000280:	103fe31e 	bne	r2,zero,d000210 <alt_irq_handler+0x24>
 d000284:	00000706 	br	d0002a4 <alt_irq_handler+0xb8>
#else
        alt_irq[i].handler(alt_irq[i].context, i); 
#endif
        break;
      }
      mask <<= 1;
 d000288:	e0bffe17 	ldw	r2,-8(fp)
 d00028c:	1085883a 	add	r2,r2,r2
 d000290:	e0bffe15 	stw	r2,-8(fp)
      i++;
 d000294:	e0bffd17 	ldw	r2,-12(fp)
 d000298:	10800044 	addi	r2,r2,1
 d00029c:	e0bffd15 	stw	r2,-12(fp)

    } while (1);
 d0002a0:	003fde06 	br	d00021c <alt_irq_handler+0x30>

  /*
   * Notify the operating system that interrupt processing is complete.
   */ 

  ALT_OS_INT_EXIT();
 d0002a4:	d00e0ac0 	call	d00e0ac <OSIntExit>
}
 d0002a8:	e037883a 	mov	sp,fp
 d0002ac:	dfc00117 	ldw	ra,4(sp)
 d0002b0:	df000017 	ldw	fp,0(sp)
 d0002b4:	dec00204 	addi	sp,sp,8
 d0002b8:	f800283a 	ret

Disassembly of section .text:

0d0002bc <_start>:

    /* Assume the data cache size is always a power of two. */
#if NIOS2_DCACHE_SIZE > 0x8000
    movhi r2, %hi(NIOS2_DCACHE_SIZE)
#else
    movui r2, NIOS2_DCACHE_SIZE
 d0002bc:	00a00014 	movui	r2,32768
#endif

0:
    initd 0(r2)
 d0002c0:	10000033 	initd	0(r2)
    addi r2, r2, -NIOS2_DCACHE_LINE_SIZE
 d0002c4:	10bff804 	addi	r2,r2,-32
    bgt r2, zero, 0b
 d0002c8:	00bffd16 	blt	zero,r2,d0002c0 <_start+0x4>
#if (NIOS2_NUM_OF_SHADOW_REG_SETS == 0)    
    /*
     * Now that the caches are initialized, set up the stack pointer.
     * The value provided by the linker is assumed to be correctly aligned.
     */
    movhi sp, %hi(__alt_stack_pointer)
 d0002cc:	06c36034 	movhi	sp,3456
    ori sp, sp, %lo(__alt_stack_pointer)
 d0002d0:	dec00014 	ori	sp,sp,0

    /* Set up the global pointer. */
    movhi gp, %hi(_gp)
 d0002d4:	06834174 	movhi	gp,3333
    ori gp, gp, %lo(_gp)
 d0002d8:	d6aa2114 	ori	gp,gp,43140
 */
#ifndef ALT_SIM_OPTIMIZE
    /* Log that the BSS is about to be cleared. */
    ALT_LOG_PUTS(alt_log_msg_bss)

    movhi r2, %hi(__bss_start)
 d0002dc:	00834174 	movhi	r2,3333
    ori r2, r2, %lo(__bss_start)
 d0002e0:	108a7714 	ori	r2,r2,10716

    movhi r3, %hi(__bss_end)
 d0002e4:	00c34174 	movhi	r3,3333
    ori r3, r3, %lo(__bss_end)
 d0002e8:	18f58714 	ori	r3,r3,54812

    beq r2, r3, 1f
 d0002ec:	10c00326 	beq	r2,r3,d0002fc <_start+0x40>

0:
    stw zero, (r2)
 d0002f0:	10000015 	stw	zero,0(r2)
    addi r2, r2, 4
 d0002f4:	10800104 	addi	r2,r2,4
    bltu r2, r3, 0b
 d0002f8:	10fffd36 	bltu	r2,r3,d0002f0 <_start+0x34>

    /* Log that alt_main is about to be called. */
    ALT_LOG_PUTS(alt_log_msg_alt_main)

    /* Call the C entry point. It should never return. */
    call alt_main
 d0002fc:	d00d2500 	call	d00d250 <alt_main>

0d000300 <alt_after_alt_main>:

    /* Wait in infinite loop in case alt_main does return. */
alt_after_alt_main:
    br alt_after_alt_main
 d000300:	003fff06 	br	d000300 <alt_after_alt_main>

0d000304 <alt_uCOSIIErrorHandler>:
#include <errno.h>
#include "includes.h"
#include "alt_error_handler.h"
 
void alt_uCOSIIErrorHandler(INT8U error_code, void *expanded_diagnosis_ptr)
{
 d000304:	defff904 	addi	sp,sp,-28
 d000308:	dfc00615 	stw	ra,24(sp)
 d00030c:	df000515 	stw	fp,20(sp)
 d000310:	df000504 	addi	fp,sp,20
 d000314:	e17ffd15 	stw	r5,-12(fp)
 d000318:	e13ffc05 	stb	r4,-16(fp)
   FAULT_LEVEL fault_level;
   
   if(error_code == OS_NO_ERR)
 d00031c:	e0bffc03 	ldbu	r2,-16(fp)
 d000320:	1005003a 	cmpeq	r2,r2,zero
 d000324:	10017b1e 	bne	r2,zero,d000914 <alt_uCOSIIErrorHandler+0x610>
   {
      return;
   }
   
   fault_level = SYSTEM;  
 d000328:	00800084 	movi	r2,2
 d00032c:	e0bffb15 	stw	r2,-20(fp)
   OSSchedLock();  /* Disable Task Switching but still service other IRQs */
 d000330:	d00e1ac0 	call	d00e1ac <OSSchedLock>
      
   switch (error_code)
 d000334:	e0bffc03 	ldbu	r2,-16(fp)
 d000338:	e0bffe15 	stw	r2,-8(fp)
 d00033c:	e0fffe17 	ldw	r3,-8(fp)
 d000340:	18800a20 	cmpeqi	r2,r3,40
 d000344:	1000371e 	bne	r2,zero,d000424 <alt_uCOSIIErrorHandler+0x120>
 d000348:	e0fffe17 	ldw	r3,-8(fp)
 d00034c:	18800a48 	cmpgei	r2,r3,41
 d000350:	10001a1e 	bne	r2,zero,d0003bc <alt_uCOSIIErrorHandler+0xb8>
 d000354:	e0fffe17 	ldw	r3,-8(fp)
 d000358:	18800120 	cmpeqi	r2,r3,4
 d00035c:	1000761e 	bne	r2,zero,d000538 <alt_uCOSIIErrorHandler+0x234>
 d000360:	e0fffe17 	ldw	r3,-8(fp)
 d000364:	18800148 	cmpgei	r2,r3,5
 d000368:	10000a1e 	bne	r2,zero,d000394 <alt_uCOSIIErrorHandler+0x90>
 d00036c:	e0fffe17 	ldw	r3,-8(fp)
 d000370:	188000a0 	cmpeqi	r2,r3,2
 d000374:	1000911e 	bne	r2,zero,d0005bc <alt_uCOSIIErrorHandler+0x2b8>
 d000378:	e0fffe17 	ldw	r3,-8(fp)
 d00037c:	188000c8 	cmpgei	r2,r3,3
 d000380:	1000771e 	bne	r2,zero,d000560 <alt_uCOSIIErrorHandler+0x25c>
 d000384:	e0fffe17 	ldw	r3,-8(fp)
 d000388:	18800060 	cmpeqi	r2,r3,1
 d00038c:	10005e1e 	bne	r2,zero,d000508 <alt_uCOSIIErrorHandler+0x204>
 d000390:	0000d806 	br	d0006f4 <alt_uCOSIIErrorHandler+0x3f0>
 d000394:	e0fffe17 	ldw	r3,-8(fp)
 d000398:	18800520 	cmpeqi	r2,r3,20
 d00039c:	10004f1e 	bne	r2,zero,d0004dc <alt_uCOSIIErrorHandler+0x1d8>
 d0003a0:	e0fffe17 	ldw	r3,-8(fp)
 d0003a4:	188007a0 	cmpeqi	r2,r3,30
 d0003a8:	1000ad1e 	bne	r2,zero,d000660 <alt_uCOSIIErrorHandler+0x35c>
 d0003ac:	e0fffe17 	ldw	r3,-8(fp)
 d0003b0:	188002a0 	cmpeqi	r2,r3,10
 d0003b4:	1000761e 	bne	r2,zero,d000590 <alt_uCOSIIErrorHandler+0x28c>
 d0003b8:	0000ce06 	br	d0006f4 <alt_uCOSIIErrorHandler+0x3f0>
 d0003bc:	e0fffe17 	ldw	r3,-8(fp)
 d0003c0:	18801020 	cmpeqi	r2,r3,64
 d0003c4:	10009c1e 	bne	r2,zero,d000638 <alt_uCOSIIErrorHandler+0x334>
 d0003c8:	e0fffe17 	ldw	r3,-8(fp)
 d0003cc:	18801048 	cmpgei	r2,r3,65
 d0003d0:	10000a1e 	bne	r2,zero,d0003fc <alt_uCOSIIErrorHandler+0xf8>
 d0003d4:	e0fffe17 	ldw	r3,-8(fp)
 d0003d8:	18800f60 	cmpeqi	r2,r3,61
 d0003dc:	10008b1e 	bne	r2,zero,d00060c <alt_uCOSIIErrorHandler+0x308>
 d0003e0:	e0fffe17 	ldw	r3,-8(fp)
 d0003e4:	18800fa0 	cmpeqi	r2,r3,62
 d0003e8:	10007e1e 	bne	r2,zero,d0005e4 <alt_uCOSIIErrorHandler+0x2e0>
 d0003ec:	e0fffe17 	ldw	r3,-8(fp)
 d0003f0:	18800aa0 	cmpeqi	r2,r3,42
 d0003f4:	1000151e 	bne	r2,zero,d00044c <alt_uCOSIIErrorHandler+0x148>
 d0003f8:	0000be06 	br	d0006f4 <alt_uCOSIIErrorHandler+0x3f0>
 d0003fc:	e0fffe17 	ldw	r3,-8(fp)
 d000400:	18801920 	cmpeqi	r2,r3,100
 d000404:	1000a11e 	bne	r2,zero,d00068c <alt_uCOSIIErrorHandler+0x388>
 d000408:	e0fffe17 	ldw	r3,-8(fp)
 d00040c:	18803fe0 	cmpeqi	r2,r3,255
 d000410:	1000aa1e 	bne	r2,zero,d0006bc <alt_uCOSIIErrorHandler+0x3b8>
 d000414:	e0fffe17 	ldw	r3,-8(fp)
 d000418:	188010a0 	cmpeqi	r2,r3,66
 d00041c:	10001d1e 	bne	r2,zero,d000494 <alt_uCOSIIErrorHandler+0x190>
 d000420:	0000b406 	br	d0006f4 <alt_uCOSIIErrorHandler+0x3f0>
   {  
      case OS_PRIO_EXIST:
         fprintf(stderr, "Attempted to assign task priority aready in use.\n");
 d000424:	00834174 	movhi	r2,3333
 d000428:	108a2204 	addi	r2,r2,10376
 d00042c:	10800017 	ldw	r2,0(r2)
 d000430:	11c00317 	ldw	r7,12(r2)
 d000434:	01034174 	movhi	r4,3333
 d000438:	212a1504 	addi	r4,r4,-22444
 d00043c:	01400044 	movi	r5,1
 d000440:	01800c44 	movi	r6,49
 d000444:	d0025980 	call	d002598 <fwrite>
         break;
 d000448:	0000c106 	br	d000750 <alt_uCOSIIErrorHandler+0x44c>
      case OS_PRIO_INVALID:
         fprintf(stderr, "Specified task priority higher than allowed max.\n");
 d00044c:	00834174 	movhi	r2,3333
 d000450:	108a2204 	addi	r2,r2,10376
 d000454:	10800017 	ldw	r2,0(r2)
 d000458:	11c00317 	ldw	r7,12(r2)
 d00045c:	01034174 	movhi	r4,3333
 d000460:	212a2204 	addi	r4,r4,-22392
 d000464:	01400044 	movi	r5,1
 d000468:	01800c44 	movi	r6,49
 d00046c:	d0025980 	call	d002598 <fwrite>
         fprintf(stderr, "Task can't be assigned a priority higher than %d\n",
 d000470:	00834174 	movhi	r2,3333
 d000474:	108a2204 	addi	r2,r2,10376
 d000478:	10800017 	ldw	r2,0(r2)
 d00047c:	11000317 	ldw	r4,12(r2)
 d000480:	01434174 	movhi	r5,3333
 d000484:	296a2f04 	addi	r5,r5,-22340
 d000488:	01800504 	movi	r6,20
 d00048c:	d00249c0 	call	d00249c <fprintf>
            OS_LOWEST_PRIO);
         break;
 d000490:	0000af06 	br	d000750 <alt_uCOSIIErrorHandler+0x44c>
      case OS_NO_MORE_TCB:
         fprintf(stderr, "Task Control Blocks have been exhausted\n");
 d000494:	00834174 	movhi	r2,3333
 d000498:	108a2204 	addi	r2,r2,10376
 d00049c:	10800017 	ldw	r2,0(r2)
 d0004a0:	11c00317 	ldw	r7,12(r2)
 d0004a4:	01034174 	movhi	r4,3333
 d0004a8:	212a3c04 	addi	r4,r4,-22288
 d0004ac:	01400044 	movi	r5,1
 d0004b0:	01800a04 	movi	r6,40
 d0004b4:	d0025980 	call	d002598 <fwrite>
         fprintf(stderr, "Current max number of tasks is %d\n",OS_MAX_TASKS);
 d0004b8:	00834174 	movhi	r2,3333
 d0004bc:	108a2204 	addi	r2,r2,10376
 d0004c0:	10800017 	ldw	r2,0(r2)
 d0004c4:	11000317 	ldw	r4,12(r2)
 d0004c8:	01434174 	movhi	r5,3333
 d0004cc:	296a4704 	addi	r5,r5,-22244
 d0004d0:	01800284 	movi	r6,10
 d0004d4:	d00249c0 	call	d00249c <fprintf>
         break;
 d0004d8:	00009d06 	br	d000750 <alt_uCOSIIErrorHandler+0x44c>
      case OS_MBOX_FULL:
         fault_level = NONE;
 d0004dc:	e03ffb15 	stw	zero,-20(fp)
         fprintf(stderr, "Attempted Post to Mailbox already holding message\n");
 d0004e0:	00834174 	movhi	r2,3333
 d0004e4:	108a2204 	addi	r2,r2,10376
 d0004e8:	10800017 	ldw	r2,0(r2)
 d0004ec:	11c00317 	ldw	r7,12(r2)
 d0004f0:	01034174 	movhi	r4,3333
 d0004f4:	212a5004 	addi	r4,r4,-22208
 d0004f8:	01400044 	movi	r5,1
 d0004fc:	01800c84 	movi	r6,50
 d000500:	d0025980 	call	d002598 <fwrite>
         break;
 d000504:	00009206 	br	d000750 <alt_uCOSIIErrorHandler+0x44c>
      case OS_ERR_EVENT_TYPE:
         fault_level = TASK;
 d000508:	00800044 	movi	r2,1
 d00050c:	e0bffb15 	stw	r2,-20(fp)
         fprintf(stderr, 
 d000510:	00834174 	movhi	r2,3333
 d000514:	108a2204 	addi	r2,r2,10376
 d000518:	10800017 	ldw	r2,0(r2)
 d00051c:	11c00317 	ldw	r7,12(r2)
 d000520:	01034174 	movhi	r4,3333
 d000524:	212a5d04 	addi	r4,r4,-22156
 d000528:	01400044 	movi	r5,1
 d00052c:	01801244 	movi	r6,73
 d000530:	d0025980 	call	d002598 <fwrite>
"Attempted to access a resource with no match for the required data type.\n");
         break;
 d000534:	00008606 	br	d000750 <alt_uCOSIIErrorHandler+0x44c>
      case OS_ERR_PEVENT_NULL:
         fprintf(stderr, "Attempting to access a resource pointing to NULL\n");
 d000538:	00834174 	movhi	r2,3333
 d00053c:	108a2204 	addi	r2,r2,10376
 d000540:	10800017 	ldw	r2,0(r2)
 d000544:	11c00317 	ldw	r7,12(r2)
 d000548:	01034174 	movhi	r4,3333
 d00054c:	212a7004 	addi	r4,r4,-22080
 d000550:	01400044 	movi	r5,1
 d000554:	01800c44 	movi	r6,49
 d000558:	d0025980 	call	d002598 <fwrite>
         break;
 d00055c:	00007c06 	br	d000750 <alt_uCOSIIErrorHandler+0x44c>
      case OS_ERR_POST_NULL_PTR:
         fault_level = TASK;
 d000560:	00800044 	movi	r2,1
 d000564:	e0bffb15 	stw	r2,-20(fp)
         fprintf(stderr, "Attempted to Post a NULL to a resource. \n");
 d000568:	00834174 	movhi	r2,3333
 d00056c:	108a2204 	addi	r2,r2,10376
 d000570:	10800017 	ldw	r2,0(r2)
 d000574:	11c00317 	ldw	r7,12(r2)
 d000578:	01034174 	movhi	r4,3333
 d00057c:	212a7d04 	addi	r4,r4,-22028
 d000580:	01400044 	movi	r5,1
 d000584:	01800a44 	movi	r6,41
 d000588:	d0025980 	call	d002598 <fwrite>
         break;
 d00058c:	00007006 	br	d000750 <alt_uCOSIIErrorHandler+0x44c>
      case OS_TIMEOUT:
         fault_level = NONE;
 d000590:	e03ffb15 	stw	zero,-20(fp)
         fprintf(stderr, "Resource not received in specified time\n");
 d000594:	00834174 	movhi	r2,3333
 d000598:	108a2204 	addi	r2,r2,10376
 d00059c:	10800017 	ldw	r2,0(r2)
 d0005a0:	11c00317 	ldw	r7,12(r2)
 d0005a4:	01034174 	movhi	r4,3333
 d0005a8:	212a8804 	addi	r4,r4,-21984
 d0005ac:	01400044 	movi	r5,1
 d0005b0:	01800a04 	movi	r6,40
 d0005b4:	d0025980 	call	d002598 <fwrite>
         break;
 d0005b8:	00006506 	br	d000750 <alt_uCOSIIErrorHandler+0x44c>
      case OS_ERR_PEND_ISR:
         fprintf(stderr, "Attempting to pend for a resource in an ISR\n");
 d0005bc:	00834174 	movhi	r2,3333
 d0005c0:	108a2204 	addi	r2,r2,10376
 d0005c4:	10800017 	ldw	r2,0(r2)
 d0005c8:	11c00317 	ldw	r7,12(r2)
 d0005cc:	01034174 	movhi	r4,3333
 d0005d0:	212a9304 	addi	r4,r4,-21940
 d0005d4:	01400044 	movi	r5,1
 d0005d8:	01800b04 	movi	r6,44
 d0005dc:	d0025980 	call	d002598 <fwrite>
         break;
 d0005e0:	00005b06 	br	d000750 <alt_uCOSIIErrorHandler+0x44c>
      case OS_TASK_DEL_IDLE:
         fprintf(stderr, "Attempted to delete the IDLE task\n");
 d0005e4:	00834174 	movhi	r2,3333
 d0005e8:	108a2204 	addi	r2,r2,10376
 d0005ec:	10800017 	ldw	r2,0(r2)
 d0005f0:	11c00317 	ldw	r7,12(r2)
 d0005f4:	01034174 	movhi	r4,3333
 d0005f8:	212a9f04 	addi	r4,r4,-21892
 d0005fc:	01400044 	movi	r5,1
 d000600:	01800884 	movi	r6,34
 d000604:	d0025980 	call	d002598 <fwrite>
         break;
 d000608:	00005106 	br	d000750 <alt_uCOSIIErrorHandler+0x44c>
      case OS_TASK_DEL_ERR:
         fault_level = NONE;
 d00060c:	e03ffb15 	stw	zero,-20(fp)
         fprintf(stderr, "Attempted to delete a task that does not exist\n");
 d000610:	00834174 	movhi	r2,3333
 d000614:	108a2204 	addi	r2,r2,10376
 d000618:	10800017 	ldw	r2,0(r2)
 d00061c:	11c00317 	ldw	r7,12(r2)
 d000620:	01034174 	movhi	r4,3333
 d000624:	212aa804 	addi	r4,r4,-21856
 d000628:	01400044 	movi	r5,1
 d00062c:	01800bc4 	movi	r6,47
 d000630:	d0025980 	call	d002598 <fwrite>
         break;
 d000634:	00004606 	br	d000750 <alt_uCOSIIErrorHandler+0x44c>
      case OS_TASK_DEL_ISR:
         fprintf(stderr, "Attempted to delete a task from an ISR\n");
 d000638:	00834174 	movhi	r2,3333
 d00063c:	108a2204 	addi	r2,r2,10376
 d000640:	10800017 	ldw	r2,0(r2)
 d000644:	11c00317 	ldw	r7,12(r2)
 d000648:	01034174 	movhi	r4,3333
 d00064c:	212ab404 	addi	r4,r4,-21808
 d000650:	01400044 	movi	r5,1
 d000654:	018009c4 	movi	r6,39
 d000658:	d0025980 	call	d002598 <fwrite>
         break;
 d00065c:	00003c06 	br	d000750 <alt_uCOSIIErrorHandler+0x44c>
      case OS_Q_FULL:
         fault_level = NONE;
 d000660:	e03ffb15 	stw	zero,-20(fp)
         fprintf(stderr, "Attempted to post to a full message queue\n");
 d000664:	00834174 	movhi	r2,3333
 d000668:	108a2204 	addi	r2,r2,10376
 d00066c:	10800017 	ldw	r2,0(r2)
 d000670:	11c00317 	ldw	r7,12(r2)
 d000674:	01034174 	movhi	r4,3333
 d000678:	212abe04 	addi	r4,r4,-21768
 d00067c:	01400044 	movi	r5,1
 d000680:	01800a84 	movi	r6,42
 d000684:	d0025980 	call	d002598 <fwrite>
         break;
 d000688:	00003106 	br	d000750 <alt_uCOSIIErrorHandler+0x44c>
      case OS_ERR_NOT_MUTEX_OWNER:
         fault_level = TASK;
 d00068c:	00800044 	movi	r2,1
 d000690:	e0bffb15 	stw	r2,-20(fp)
         fprintf(stderr, "Attempted to post a mutex not owned by the task\n");
 d000694:	00834174 	movhi	r2,3333
 d000698:	108a2204 	addi	r2,r2,10376
 d00069c:	10800017 	ldw	r2,0(r2)
 d0006a0:	11c00317 	ldw	r7,12(r2)
 d0006a4:	01034174 	movhi	r4,3333
 d0006a8:	212ac904 	addi	r4,r4,-21724
 d0006ac:	01400044 	movi	r5,1
 d0006b0:	01800c04 	movi	r6,48
 d0006b4:	d0025980 	call	d002598 <fwrite>
         break;
 d0006b8:	00002506 	br	d000750 <alt_uCOSIIErrorHandler+0x44c>
      case EXPANDED_DIAGNOSIS_CODE:      
         fault_level = SYSTEM;
 d0006bc:	00800084 	movi	r2,2
 d0006c0:	e0bffb15 	stw	r2,-20(fp)
         printf(
 d0006c4:	01034174 	movhi	r4,3333
 d0006c8:	212ad604 	addi	r4,r4,-21672
 d0006cc:	d0029980 	call	d002998 <printf>
"\n[MicroC/OS-II]: See STDERR for expanded diagnosis translation.");    
         fprintf(stderr, "\n[MicroC/OS-II]: Expanded Diagnosis: %s.", 
 d0006d0:	00834174 	movhi	r2,3333
 d0006d4:	108a2204 	addi	r2,r2,10376
 d0006d8:	10800017 	ldw	r2,0(r2)
 d0006dc:	11000317 	ldw	r4,12(r2)
 d0006e0:	e1bffd17 	ldw	r6,-12(fp)
 d0006e4:	01434174 	movhi	r5,3333
 d0006e8:	296ae604 	addi	r5,r5,-21608
 d0006ec:	d00249c0 	call	d00249c <fprintf>
                 (char *)expanded_diagnosis_ptr);
         break;           
 d0006f0:	00001706 	br	d000750 <alt_uCOSIIErrorHandler+0x44c>
      default:
         printf("\n[MicroC/OS-II]: (Not a MicroC/OS-II error) See STDERR.\n");    
 d0006f4:	01034174 	movhi	r4,3333
 d0006f8:	212af104 	addi	r4,r4,-21564
 d0006fc:	d002cc00 	call	d002cc0 <puts>
         fprintf(stderr, "\n[MicroC/OS-II]:");
 d000700:	00834174 	movhi	r2,3333
 d000704:	108a2204 	addi	r2,r2,10376
 d000708:	10800017 	ldw	r2,0(r2)
 d00070c:	11c00317 	ldw	r7,12(r2)
 d000710:	01034174 	movhi	r4,3333
 d000714:	212aff04 	addi	r4,r4,-21508
 d000718:	01400044 	movi	r5,1
 d00071c:	01800404 	movi	r6,16
 d000720:	d0025980 	call	d002598 <fwrite>
         fprintf(stderr, "\nError_code %d.\n", error_code);
 d000724:	00834174 	movhi	r2,3333
 d000728:	108a2204 	addi	r2,r2,10376
 d00072c:	10800017 	ldw	r2,0(r2)
 d000730:	11000317 	ldw	r4,12(r2)
 d000734:	e1bffc03 	ldbu	r6,-16(fp)
 d000738:	01434174 	movhi	r5,3333
 d00073c:	296b0404 	addi	r5,r5,-21488
 d000740:	d00249c0 	call	d00249c <fprintf>
         perror("\n[MicroC/OS-II]: (Not a MicroC/OS-II error), ERRNO: ");
 d000744:	01034174 	movhi	r4,3333
 d000748:	212b0904 	addi	r4,r4,-21468
 d00074c:	d0029840 	call	d002984 <perror>

   }

   /* Process the error based on the fault level, 
    * reenable scheduler if appropriate. */  
   switch (fault_level) {
 d000750:	e0bffb17 	ldw	r2,-20(fp)
 d000754:	e0bfff15 	stw	r2,-4(fp)
 d000758:	e0ffff17 	ldw	r3,-4(fp)
 d00075c:	18800060 	cmpeqi	r2,r3,1
 d000760:	1000071e 	bne	r2,zero,d000780 <alt_uCOSIIErrorHandler+0x47c>
 d000764:	e0ffff17 	ldw	r3,-4(fp)
 d000768:	18800070 	cmpltui	r2,r3,1
 d00076c:	10003f1e 	bne	r2,zero,d00086c <alt_uCOSIIErrorHandler+0x568>
 d000770:	e0ffff17 	ldw	r3,-4(fp)
 d000774:	188000a0 	cmpeqi	r2,r3,2
 d000778:	10001d1e 	bne	r2,zero,d0007f0 <alt_uCOSIIErrorHandler+0x4ec>
 d00077c:	00005806 	br	d0008e0 <alt_uCOSIIErrorHandler+0x5dc>
      case TASK:
         /* Error can be isolated by killing the task */
         printf("\n[MicroC/OS-II]: See STDERR (FAULT_LEVEL is TASK).");
 d000780:	01034174 	movhi	r4,3333
 d000784:	212b1704 	addi	r4,r4,-21412
 d000788:	d0029980 	call	d002998 <printf>
         fprintf(stderr, "\n[MicroC/OS-II]: FAULT_LEVEL is TASK");
 d00078c:	00834174 	movhi	r2,3333
 d000790:	108a2204 	addi	r2,r2,10376
 d000794:	10800017 	ldw	r2,0(r2)
 d000798:	11c00317 	ldw	r7,12(r2)
 d00079c:	01034174 	movhi	r4,3333
 d0007a0:	212b2404 	addi	r4,r4,-21360
 d0007a4:	01400044 	movi	r5,1
 d0007a8:	01800904 	movi	r6,36
 d0007ac:	d0025980 	call	d002598 <fwrite>
         fprintf(stderr, "\n[MicroC/OS-II]: Task is being deleted.\n");
 d0007b0:	00834174 	movhi	r2,3333
 d0007b4:	108a2204 	addi	r2,r2,10376
 d0007b8:	10800017 	ldw	r2,0(r2)
 d0007bc:	11c00317 	ldw	r7,12(r2)
 d0007c0:	01034174 	movhi	r4,3333
 d0007c4:	212b2e04 	addi	r4,r4,-21320
 d0007c8:	01400044 	movi	r5,1
 d0007cc:	01800a04 	movi	r6,40
 d0007d0:	d0025980 	call	d002598 <fwrite>
         OSSchedUnlock(); /* Reenable Task Switching */
 d0007d4:	d00e2380 	call	d00e238 <OSSchedUnlock>
         OSTaskDel(OS_PRIO_SELF);
 d0007d8:	01003fc4 	movi	r4,255
 d0007dc:	d0142f00 	call	d0142f0 <OSTaskDel>
         /* Reinvoke uCOSII error handler in case task deletion fails, in 
          * which case fault_level for this secondary error will be SYSTEM. */
         alt_uCOSIIErrorHandler(error_code, 0);         
 d0007e0:	e13ffc03 	ldbu	r4,-16(fp)
 d0007e4:	000b883a 	mov	r5,zero
 d0007e8:	d0003040 	call	d000304 <alt_uCOSIIErrorHandler>
         break;
 d0007ec:	00004806 	br	d000910 <alt_uCOSIIErrorHandler+0x60c>
      case SYSTEM:
         /* Total System Failure, Restart Required */
         printf("\n[MicroC/OS-II]: See STDERR (FAULT_LEVEL is SYSTEM).");    
 d0007f0:	01034174 	movhi	r4,3333
 d0007f4:	212b3904 	addi	r4,r4,-21276
 d0007f8:	d0029980 	call	d002998 <printf>
         fprintf(stderr, "\n[MicroC/OS-II]: FAULT_LEVEL is SYSTEM");
 d0007fc:	00834174 	movhi	r2,3333
 d000800:	108a2204 	addi	r2,r2,10376
 d000804:	10800017 	ldw	r2,0(r2)
 d000808:	11c00317 	ldw	r7,12(r2)
 d00080c:	01034174 	movhi	r4,3333
 d000810:	212b4704 	addi	r4,r4,-21220
 d000814:	01400044 	movi	r5,1
 d000818:	01800984 	movi	r6,38
 d00081c:	d0025980 	call	d002598 <fwrite>
         fprintf(stderr, "\n[MicroC/OS-II]: FATAL Error, Restart required.");
 d000820:	00834174 	movhi	r2,3333
 d000824:	108a2204 	addi	r2,r2,10376
 d000828:	10800017 	ldw	r2,0(r2)
 d00082c:	11c00317 	ldw	r7,12(r2)
 d000830:	01034174 	movhi	r4,3333
 d000834:	212b5104 	addi	r4,r4,-21180
 d000838:	01400044 	movi	r5,1
 d00083c:	01800bc4 	movi	r6,47
 d000840:	d0025980 	call	d002598 <fwrite>
         fprintf(stderr, "\n[MicroC/OS-II]: Locking scheduler - endless loop.\n");
 d000844:	00834174 	movhi	r2,3333
 d000848:	108a2204 	addi	r2,r2,10376
 d00084c:	10800017 	ldw	r2,0(r2)
 d000850:	11c00317 	ldw	r7,12(r2)
 d000854:	01034174 	movhi	r4,3333
 d000858:	212b5d04 	addi	r4,r4,-21132
 d00085c:	01400044 	movi	r5,1
 d000860:	01800cc4 	movi	r6,51
 d000864:	d0025980 	call	d002598 <fwrite>
         while(1); /* Since scheduler is locked,loop halts all task activity.*/
 d000868:	003fff06 	br	d000868 <alt_uCOSIIErrorHandler+0x564>
         break;
      case NONE:
         fprintf(stderr, "\n[MicroC/OS-II]: FAULT_LEVEL is NONE");
 d00086c:	00834174 	movhi	r2,3333
 d000870:	108a2204 	addi	r2,r2,10376
 d000874:	10800017 	ldw	r2,0(r2)
 d000878:	11c00317 	ldw	r7,12(r2)
 d00087c:	01034174 	movhi	r4,3333
 d000880:	212b6a04 	addi	r4,r4,-21080
 d000884:	01400044 	movi	r5,1
 d000888:	01800904 	movi	r6,36
 d00088c:	d0025980 	call	d002598 <fwrite>
         fprintf(stderr, "\n[MicroC/OS-II]: Informational error only, control"); 
 d000890:	00834174 	movhi	r2,3333
 d000894:	108a2204 	addi	r2,r2,10376
 d000898:	10800017 	ldw	r2,0(r2)
 d00089c:	11c00317 	ldw	r7,12(r2)
 d0008a0:	01034174 	movhi	r4,3333
 d0008a4:	212b7404 	addi	r4,r4,-21040
 d0008a8:	01400044 	movi	r5,1
 d0008ac:	01800c84 	movi	r6,50
 d0008b0:	d0025980 	call	d002598 <fwrite>
         fprintf(stderr, 
 d0008b4:	00834174 	movhi	r2,3333
 d0008b8:	108a2204 	addi	r2,r2,10376
 d0008bc:	10800017 	ldw	r2,0(r2)
 d0008c0:	11c00317 	ldw	r7,12(r2)
 d0008c4:	01034174 	movhi	r4,3333
 d0008c8:	212b8104 	addi	r4,r4,-20988
 d0008cc:	01400044 	movi	r5,1
 d0008d0:	01800f84 	movi	r6,62
 d0008d4:	d0025980 	call	d002598 <fwrite>
            "returned to task to complete processing at application level.\n");
         OSSchedUnlock(); /* Reenable Task Switching */
 d0008d8:	d00e2380 	call	d00e238 <OSSchedUnlock>
         return;   
 d0008dc:	00000d06 	br	d000914 <alt_uCOSIIErrorHandler+0x610>
         break;      
      default:
         printf("\n[MicroC/OS-II]: See STDERR (FAULT_LEVEL is Unknown).\n");
 d0008e0:	01034174 	movhi	r4,3333
 d0008e4:	212b9104 	addi	r4,r4,-20924
 d0008e8:	d002cc00 	call	d002cc0 <puts>
         fprintf(stderr, "\n[MicroC/OS-II]: FAULT_LEVEL is unknown!?!\n");
 d0008ec:	00834174 	movhi	r2,3333
 d0008f0:	108a2204 	addi	r2,r2,10376
 d0008f4:	10800017 	ldw	r2,0(r2)
 d0008f8:	11c00317 	ldw	r7,12(r2)
 d0008fc:	01034174 	movhi	r4,3333
 d000900:	212b9f04 	addi	r4,r4,-20868
 d000904:	01400044 	movi	r5,1
 d000908:	01800ac4 	movi	r6,43
 d00090c:	d0025980 	call	d002598 <fwrite>
   }
   while(1); /* Correct Program Flow never gets here. */
 d000910:	003fff06 	br	d000910 <alt_uCOSIIErrorHandler+0x60c>
}
 d000914:	e037883a 	mov	sp,fp
 d000918:	dfc00117 	ldw	ra,4(sp)
 d00091c:	df000017 	ldw	fp,0(sp)
 d000920:	dec00204 	addi	sp,sp,8
 d000924:	f800283a 	ret

0d000928 <alt_NetworkErrorHandler>:

void alt_NetworkErrorHandler(INT8U error_code, void *expanded_diagnosis_ptr)
{
 d000928:	defffa04 	addi	sp,sp,-24
 d00092c:	dfc00515 	stw	ra,20(sp)
 d000930:	df000415 	stw	fp,16(sp)
 d000934:	df000404 	addi	fp,sp,16
 d000938:	e17ffe15 	stw	r5,-8(fp)
 d00093c:	e13ffd05 	stb	r4,-12(fp)
   FAULT_LEVEL fault_level;

   if(error_code == OS_NO_ERR)
 d000940:	e0bffd03 	ldbu	r2,-12(fp)
 d000944:	1005003a 	cmpeq	r2,r2,zero
 d000948:	1000981e 	bne	r2,zero,d000bac <alt_NetworkErrorHandler+0x284>
   {
      return;
   }

   fault_level = SYSTEM;   
 d00094c:	00800084 	movi	r2,2
 d000950:	e0bffc15 	stw	r2,-16(fp)
   OSSchedLock();  /* Disable Task Switching but still service other IRQs */  
 d000954:	d00e1ac0 	call	d00e1ac <OSSchedLock>

   if (error_code == EXPANDED_DIAGNOSIS_CODE) 
 d000958:	e0bffd03 	ldbu	r2,-12(fp)
 d00095c:	10803fd8 	cmpnei	r2,r2,255
 d000960:	1000111e 	bne	r2,zero,d0009a8 <alt_NetworkErrorHandler+0x80>
   {
      fault_level = SYSTEM;
 d000964:	00800084 	movi	r2,2
 d000968:	e0bffc15 	stw	r2,-16(fp)
      printf("\n[Network]: See STDERR for expanded diagnosis translation.");    
 d00096c:	01034174 	movhi	r4,3333
 d000970:	212baa04 	addi	r4,r4,-20824
 d000974:	d0029980 	call	d002998 <printf>
      fprintf(stderr, "\n[Network]: %s", (char *)expanded_diagnosis_ptr);
 d000978:	00834174 	movhi	r2,3333
 d00097c:	108a2204 	addi	r2,r2,10376
 d000980:	10800017 	ldw	r2,0(r2)
 d000984:	11000317 	ldw	r4,12(r2)
 d000988:	e1bffe17 	ldw	r6,-8(fp)
 d00098c:	01434174 	movhi	r5,3333
 d000990:	296bb904 	addi	r5,r5,-20764
 d000994:	d00249c0 	call	d00249c <fprintf>
      /* Check errno also in case it has been set. */
      perror("\n[Network]:  ERRNO: ");
 d000998:	01034174 	movhi	r4,3333
 d00099c:	212bbd04 	addi	r4,r4,-20748
 d0009a0:	d0029840 	call	d002984 <perror>
 d0009a4:	00001006 	br	d0009e8 <alt_NetworkErrorHandler+0xc0>
   }
   else 
   {
      fault_level = TASK;
 d0009a8:	00800044 	movi	r2,1
 d0009ac:	e0bffc15 	stw	r2,-16(fp)
      printf("\n[Network]: See STDERR.\n");    
 d0009b0:	01034174 	movhi	r4,3333
 d0009b4:	212bc304 	addi	r4,r4,-20724
 d0009b8:	d002cc00 	call	d002cc0 <puts>
      fprintf(stderr, "\n[Network]: Error_code %d!\n", error_code);        
 d0009bc:	00834174 	movhi	r2,3333
 d0009c0:	108a2204 	addi	r2,r2,10376
 d0009c4:	10800017 	ldw	r2,0(r2)
 d0009c8:	11000317 	ldw	r4,12(r2)
 d0009cc:	e1bffd03 	ldbu	r6,-12(fp)
 d0009d0:	01434174 	movhi	r5,3333
 d0009d4:	296bc904 	addi	r5,r5,-20700
 d0009d8:	d00249c0 	call	d00249c <fprintf>
      perror("\n[Network]:  ERRNO: ");
 d0009dc:	01034174 	movhi	r4,3333
 d0009e0:	212bbd04 	addi	r4,r4,-20748
 d0009e4:	d0029840 	call	d002984 <perror>
   }

   /* Process error based on fault level, reenable scheduler if appropriate. */     
   switch (fault_level) 
 d0009e8:	e0bffc17 	ldw	r2,-16(fp)
 d0009ec:	e0bfff15 	stw	r2,-4(fp)
 d0009f0:	e0ffff17 	ldw	r3,-4(fp)
 d0009f4:	18800060 	cmpeqi	r2,r3,1
 d0009f8:	1000071e 	bne	r2,zero,d000a18 <alt_NetworkErrorHandler+0xf0>
 d0009fc:	e0ffff17 	ldw	r3,-4(fp)
 d000a00:	18800070 	cmpltui	r2,r3,1
 d000a04:	10003f1e 	bne	r2,zero,d000b04 <alt_NetworkErrorHandler+0x1dc>
 d000a08:	e0ffff17 	ldw	r3,-4(fp)
 d000a0c:	188000a0 	cmpeqi	r2,r3,2
 d000a10:	10001d1e 	bne	r2,zero,d000a88 <alt_NetworkErrorHandler+0x160>
 d000a14:	00005806 	br	d000b78 <alt_NetworkErrorHandler+0x250>
   {
      case TASK:
         /* Error can be isolated by killing the task */
         printf("\n[Network]: See STDERR (FAULT_LEVEL is TASK).");
 d000a18:	01034174 	movhi	r4,3333
 d000a1c:	212bd004 	addi	r4,r4,-20672
 d000a20:	d0029980 	call	d002998 <printf>
         fprintf(stderr, "\n[Network]: FAULT_LEVEL is TASK");
 d000a24:	00834174 	movhi	r2,3333
 d000a28:	108a2204 	addi	r2,r2,10376
 d000a2c:	10800017 	ldw	r2,0(r2)
 d000a30:	11c00317 	ldw	r7,12(r2)
 d000a34:	01034174 	movhi	r4,3333
 d000a38:	212bdc04 	addi	r4,r4,-20624
 d000a3c:	01400044 	movi	r5,1
 d000a40:	018007c4 	movi	r6,31
 d000a44:	d0025980 	call	d002598 <fwrite>
         fprintf(stderr, "\n[Network]: Task is being deleted.\n");
 d000a48:	00834174 	movhi	r2,3333
 d000a4c:	108a2204 	addi	r2,r2,10376
 d000a50:	10800017 	ldw	r2,0(r2)
 d000a54:	11c00317 	ldw	r7,12(r2)
 d000a58:	01034174 	movhi	r4,3333
 d000a5c:	212be404 	addi	r4,r4,-20592
 d000a60:	01400044 	movi	r5,1
 d000a64:	018008c4 	movi	r6,35
 d000a68:	d0025980 	call	d002598 <fwrite>
         OSSchedUnlock(); /* Reenable Task Switching */
 d000a6c:	d00e2380 	call	d00e238 <OSSchedUnlock>
         OSTaskDel(OS_PRIO_SELF);
 d000a70:	01003fc4 	movi	r4,255
 d000a74:	d0142f00 	call	d0142f0 <OSTaskDel>
         /* Reinvoke uCOSII error handler in case task deletion fails, in 
          * which case fault_level for this secondary error will be SYSTEM. */
         alt_uCOSIIErrorHandler(error_code, 0);         
 d000a78:	e13ffd03 	ldbu	r4,-12(fp)
 d000a7c:	000b883a 	mov	r5,zero
 d000a80:	d0003040 	call	d000304 <alt_uCOSIIErrorHandler>
         break;
 d000a84:	00004806 	br	d000ba8 <alt_NetworkErrorHandler+0x280>
      case SYSTEM:
         /* Total System Failure, Restart Required */
         printf("\n[Network]: See STDERR (FAULT_LEVEL is SYSTEM).");    
 d000a88:	01034174 	movhi	r4,3333
 d000a8c:	212bed04 	addi	r4,r4,-20556
 d000a90:	d0029980 	call	d002998 <printf>
         fprintf(stderr, "\n[Network]: FAULT_LEVEL is SYSTEM.");
 d000a94:	00834174 	movhi	r2,3333
 d000a98:	108a2204 	addi	r2,r2,10376
 d000a9c:	10800017 	ldw	r2,0(r2)
 d000aa0:	11c00317 	ldw	r7,12(r2)
 d000aa4:	01034174 	movhi	r4,3333
 d000aa8:	212bf904 	addi	r4,r4,-20508
 d000aac:	01400044 	movi	r5,1
 d000ab0:	01800884 	movi	r6,34
 d000ab4:	d0025980 	call	d002598 <fwrite>
         fprintf(stderr, "\n[Network]: FATAL Error, Restart required.");
 d000ab8:	00834174 	movhi	r2,3333
 d000abc:	108a2204 	addi	r2,r2,10376
 d000ac0:	10800017 	ldw	r2,0(r2)
 d000ac4:	11c00317 	ldw	r7,12(r2)
 d000ac8:	01034174 	movhi	r4,3333
 d000acc:	212c0204 	addi	r4,r4,-20472
 d000ad0:	01400044 	movi	r5,1
 d000ad4:	01800a84 	movi	r6,42
 d000ad8:	d0025980 	call	d002598 <fwrite>
         fprintf(stderr, "\n[Network]: Locking scheduler - endless loop.\n");
 d000adc:	00834174 	movhi	r2,3333
 d000ae0:	108a2204 	addi	r2,r2,10376
 d000ae4:	10800017 	ldw	r2,0(r2)
 d000ae8:	11c00317 	ldw	r7,12(r2)
 d000aec:	01034174 	movhi	r4,3333
 d000af0:	212c0d04 	addi	r4,r4,-20428
 d000af4:	01400044 	movi	r5,1
 d000af8:	01800b84 	movi	r6,46
 d000afc:	d0025980 	call	d002598 <fwrite>
         while(1); /* Since scheduler is locked, loop halts all task activity.*/
 d000b00:	003fff06 	br	d000b00 <alt_NetworkErrorHandler+0x1d8>
         break;
      case NONE:
         fprintf(stderr, "\n[Network]: FAULT_LEVEL is NONE.");
 d000b04:	00834174 	movhi	r2,3333
 d000b08:	108a2204 	addi	r2,r2,10376
 d000b0c:	10800017 	ldw	r2,0(r2)
 d000b10:	11c00317 	ldw	r7,12(r2)
 d000b14:	01034174 	movhi	r4,3333
 d000b18:	212c1904 	addi	r4,r4,-20380
 d000b1c:	01400044 	movi	r5,1
 d000b20:	01800804 	movi	r6,32
 d000b24:	d0025980 	call	d002598 <fwrite>
         fprintf(stderr, "\n[Network]: Informational "
 d000b28:	00834174 	movhi	r2,3333
 d000b2c:	108a2204 	addi	r2,r2,10376
 d000b30:	10800017 	ldw	r2,0(r2)
 d000b34:	11c00317 	ldw	r7,12(r2)
 d000b38:	01034174 	movhi	r4,3333
 d000b3c:	212c2204 	addi	r4,r4,-20344
 d000b40:	01400044 	movi	r5,1
 d000b44:	01800d84 	movi	r6,54
 d000b48:	d0025980 	call	d002598 <fwrite>
                         "error only, control returned");
         fprintf(stderr, 
 d000b4c:	00834174 	movhi	r2,3333
 d000b50:	108a2204 	addi	r2,r2,10376
 d000b54:	10800017 	ldw	r2,0(r2)
 d000b58:	11c00317 	ldw	r7,12(r2)
 d000b5c:	01034174 	movhi	r4,3333
 d000b60:	212c3004 	addi	r4,r4,-20288
 d000b64:	01400044 	movi	r5,1
 d000b68:	01800e44 	movi	r6,57
 d000b6c:	d0025980 	call	d002598 <fwrite>
            "to task to complete processing at the application level.\n");
         OSSchedUnlock(); /* Reenable Task Switching */ 
 d000b70:	d00e2380 	call	d00e238 <OSSchedUnlock>
         return;
 d000b74:	00000d06 	br	d000bac <alt_NetworkErrorHandler+0x284>
         break;         
      default:
         printf("\n[Network]: See STDERR (FAULT_LEVEL is unknown).\n");    
 d000b78:	01034174 	movhi	r4,3333
 d000b7c:	212c3f04 	addi	r4,r4,-20228
 d000b80:	d002cc00 	call	d002cc0 <puts>
         fprintf(stderr, "\n[Network] FAULT_LEVEL is unknown !?!\n");
 d000b84:	00834174 	movhi	r2,3333
 d000b88:	108a2204 	addi	r2,r2,10376
 d000b8c:	10800017 	ldw	r2,0(r2)
 d000b90:	11c00317 	ldw	r7,12(r2)
 d000b94:	01034174 	movhi	r4,3333
 d000b98:	212c4c04 	addi	r4,r4,-20176
 d000b9c:	01400044 	movi	r5,1
 d000ba0:	01800984 	movi	r6,38
 d000ba4:	d0025980 	call	d002598 <fwrite>
   }
   while(1); /* Correct Program Flow never gets here. */
 d000ba8:	003fff06 	br	d000ba8 <alt_NetworkErrorHandler+0x280>
}
 d000bac:	e037883a 	mov	sp,fp
 d000bb0:	dfc00117 	ldw	ra,4(sp)
 d000bb4:	df000017 	ldw	fp,0(sp)
 d000bb8:	dec00204 	addi	sp,sp,8
 d000bbc:	f800283a 	ret

0d000bc0 <alt_SSSErrorHandler>:
   
   
void alt_SSSErrorHandler(INT8U error_code, 
                         void *expanded_diagnosis_ptr)
{
 d000bc0:	defff804 	addi	sp,sp,-32
 d000bc4:	dfc00715 	stw	ra,28(sp)
 d000bc8:	df000615 	stw	fp,24(sp)
 d000bcc:	df000604 	addi	fp,sp,24
 d000bd0:	e17ffc15 	stw	r5,-16(fp)
 d000bd4:	e13ffb05 	stb	r4,-20(fp)
   FAULT_LEVEL fault_level;
   
   if   (error_code == OS_NO_ERR)
 d000bd8:	e0bffb03 	ldbu	r2,-20(fp)
 d000bdc:	1005003a 	cmpeq	r2,r2,zero
 d000be0:	1000ad1e 	bne	r2,zero,d000e98 <alt_SSSErrorHandler+0x2d8>
   {
      return;
   }

   fault_level = (error_code == OS_NO_ERR) ? NONE : SYSTEM;
 d000be4:	e0bffb03 	ldbu	r2,-20(fp)
 d000be8:	1004c03a 	cmpne	r2,r2,zero
 d000bec:	1000021e 	bne	r2,zero,d000bf8 <alt_SSSErrorHandler+0x38>
 d000bf0:	e03ffe15 	stw	zero,-8(fp)
 d000bf4:	00000206 	br	d000c00 <alt_SSSErrorHandler+0x40>
 d000bf8:	00800084 	movi	r2,2
 d000bfc:	e0bffe15 	stw	r2,-8(fp)
 d000c00:	e0fffe17 	ldw	r3,-8(fp)
 d000c04:	e0fffa15 	stw	r3,-24(fp)
   
   OSSchedLock();  /* Disable Task Switching but still service other IRQs */
 d000c08:	d00e1ac0 	call	d00e1ac <OSSchedLock>
   switch (error_code)
 d000c0c:	e0bffb03 	ldbu	r2,-20(fp)
 d000c10:	e0bffd15 	stw	r2,-12(fp)
 d000c14:	e0fffd17 	ldw	r3,-12(fp)
 d000c18:	188007a0 	cmpeqi	r2,r3,30
 d000c1c:	1000121e 	bne	r2,zero,d000c68 <alt_SSSErrorHandler+0xa8>
 d000c20:	e0fffd17 	ldw	r3,-12(fp)
 d000c24:	18803fe0 	cmpeqi	r2,r3,255
 d000c28:	1000011e 	bne	r2,zero,d000c30 <alt_SSSErrorHandler+0x70>
 d000c2c:	00001906 	br	d000c94 <alt_SSSErrorHandler+0xd4>
   {
      case EXPANDED_DIAGNOSIS_CODE:      
         fault_level = SYSTEM;
 d000c30:	00800084 	movi	r2,2
 d000c34:	e0bffa15 	stw	r2,-24(fp)
         printf("\n[SSS]: See STDERR for expanded diagnosis translation.");    
 d000c38:	01034174 	movhi	r4,3333
 d000c3c:	212c5604 	addi	r4,r4,-20136
 d000c40:	d0029980 	call	d002998 <printf>
         fprintf(stderr, "\n[SSS]: %s", (char *)expanded_diagnosis_ptr);
 d000c44:	00834174 	movhi	r2,3333
 d000c48:	108a2204 	addi	r2,r2,10376
 d000c4c:	10800017 	ldw	r2,0(r2)
 d000c50:	11000317 	ldw	r4,12(r2)
 d000c54:	e1bffc17 	ldw	r6,-16(fp)
 d000c58:	01434174 	movhi	r5,3333
 d000c5c:	296c6404 	addi	r5,r5,-20080
 d000c60:	d00249c0 	call	d00249c <fprintf>
         break;
 d000c64:	00001b06 	br	d000cd4 <alt_SSSErrorHandler+0x114>
         
      case OS_Q_FULL:
         fault_level = NONE;
 d000c68:	e03ffa15 	stw	zero,-24(fp)
         fprintf(stderr,"\n[SSS]: Attempted to post to a full message queue.");
 d000c6c:	00834174 	movhi	r2,3333
 d000c70:	108a2204 	addi	r2,r2,10376
 d000c74:	10800017 	ldw	r2,0(r2)
 d000c78:	11c00317 	ldw	r7,12(r2)
 d000c7c:	01034174 	movhi	r4,3333
 d000c80:	212c6704 	addi	r4,r4,-20068
 d000c84:	01400044 	movi	r5,1
 d000c88:	01800c84 	movi	r6,50
 d000c8c:	d0025980 	call	d002598 <fwrite>
         break;
 d000c90:	00001006 	br	d000cd4 <alt_SSSErrorHandler+0x114>
      
      default:
         fault_level = SYSTEM;
 d000c94:	00800084 	movi	r2,2
 d000c98:	e0bffa15 	stw	r2,-24(fp)
         printf("\n[SSS]: See STDERR.\n");    
 d000c9c:	01034174 	movhi	r4,3333
 d000ca0:	212c7404 	addi	r4,r4,-20016
 d000ca4:	d002cc00 	call	d002cc0 <puts>
         fprintf(stderr, "\n[SSS]: Error_code %d!", error_code);        
 d000ca8:	00834174 	movhi	r2,3333
 d000cac:	108a2204 	addi	r2,r2,10376
 d000cb0:	10800017 	ldw	r2,0(r2)
 d000cb4:	11000317 	ldw	r4,12(r2)
 d000cb8:	e1bffb03 	ldbu	r6,-20(fp)
 d000cbc:	01434174 	movhi	r5,3333
 d000cc0:	296c7904 	addi	r5,r5,-19996
 d000cc4:	d00249c0 	call	d00249c <fprintf>
         perror("\n[SSS]:  ERRNO: ");
 d000cc8:	01034174 	movhi	r4,3333
 d000ccc:	212c7f04 	addi	r4,r4,-19972
 d000cd0:	d0029840 	call	d002984 <perror>
   }

   /* Process the error based on the fault level, 
    * reenable scheduler if appropriate. */     
   switch (fault_level) 
 d000cd4:	e0bffa17 	ldw	r2,-24(fp)
 d000cd8:	e0bfff15 	stw	r2,-4(fp)
 d000cdc:	e0ffff17 	ldw	r3,-4(fp)
 d000ce0:	18800060 	cmpeqi	r2,r3,1
 d000ce4:	1000071e 	bne	r2,zero,d000d04 <alt_SSSErrorHandler+0x144>
 d000ce8:	e0ffff17 	ldw	r3,-4(fp)
 d000cec:	18800070 	cmpltui	r2,r3,1
 d000cf0:	10003f1e 	bne	r2,zero,d000df0 <alt_SSSErrorHandler+0x230>
 d000cf4:	e0ffff17 	ldw	r3,-4(fp)
 d000cf8:	188000a0 	cmpeqi	r2,r3,2
 d000cfc:	10001d1e 	bne	r2,zero,d000d74 <alt_SSSErrorHandler+0x1b4>
 d000d00:	00005806 	br	d000e64 <alt_SSSErrorHandler+0x2a4>
   {
      case TASK:
         /* Error can be isolated by killing the task */
         printf("\n[SSS]: See STDERR (FAULT_LEVEL is TASK).");
 d000d04:	01034174 	movhi	r4,3333
 d000d08:	212c8404 	addi	r4,r4,-19952
 d000d0c:	d0029980 	call	d002998 <printf>
         fprintf(stderr, "\n[SSS]: FAULT_LEVEL is TASK");
 d000d10:	00834174 	movhi	r2,3333
 d000d14:	108a2204 	addi	r2,r2,10376
 d000d18:	10800017 	ldw	r2,0(r2)
 d000d1c:	11c00317 	ldw	r7,12(r2)
 d000d20:	01034174 	movhi	r4,3333
 d000d24:	212c8f04 	addi	r4,r4,-19908
 d000d28:	01400044 	movi	r5,1
 d000d2c:	018006c4 	movi	r6,27
 d000d30:	d0025980 	call	d002598 <fwrite>
         fprintf(stderr, "\n[SSS]: Task is being deleted.\n");
 d000d34:	00834174 	movhi	r2,3333
 d000d38:	108a2204 	addi	r2,r2,10376
 d000d3c:	10800017 	ldw	r2,0(r2)
 d000d40:	11c00317 	ldw	r7,12(r2)
 d000d44:	01034174 	movhi	r4,3333
 d000d48:	212c9604 	addi	r4,r4,-19880
 d000d4c:	01400044 	movi	r5,1
 d000d50:	018007c4 	movi	r6,31
 d000d54:	d0025980 	call	d002598 <fwrite>
         OSSchedUnlock(); /* Reenable Task Switching */
 d000d58:	d00e2380 	call	d00e238 <OSSchedUnlock>
         OSTaskDel(OS_PRIO_SELF);
 d000d5c:	01003fc4 	movi	r4,255
 d000d60:	d0142f00 	call	d0142f0 <OSTaskDel>
         /* Invoke uCOSII error handler in case task deletion fails, in 
          * which case fault_level for this secondary error will be SYSTEM. */
         alt_uCOSIIErrorHandler(error_code, 0);         
 d000d64:	e13ffb03 	ldbu	r4,-20(fp)
 d000d68:	000b883a 	mov	r5,zero
 d000d6c:	d0003040 	call	d000304 <alt_uCOSIIErrorHandler>
         break;
 d000d70:	00004806 	br	d000e94 <alt_SSSErrorHandler+0x2d4>
      case SYSTEM:
          /* Total System Failure, Restart Required */
         printf("\n[SSS]: See STDERR (FAULT_LEVEL is SYSTEM).");    
 d000d74:	01034174 	movhi	r4,3333
 d000d78:	212c9e04 	addi	r4,r4,-19848
 d000d7c:	d0029980 	call	d002998 <printf>
         fprintf(stderr, "\n[SSS]: FAULT_LEVEL is SYSTEM.");
 d000d80:	00834174 	movhi	r2,3333
 d000d84:	108a2204 	addi	r2,r2,10376
 d000d88:	10800017 	ldw	r2,0(r2)
 d000d8c:	11c00317 	ldw	r7,12(r2)
 d000d90:	01034174 	movhi	r4,3333
 d000d94:	212ca904 	addi	r4,r4,-19804
 d000d98:	01400044 	movi	r5,1
 d000d9c:	01800784 	movi	r6,30
 d000da0:	d0025980 	call	d002598 <fwrite>
         fprintf(stderr, "\n[SSS]: FATAL Error, Restart required.");
 d000da4:	00834174 	movhi	r2,3333
 d000da8:	108a2204 	addi	r2,r2,10376
 d000dac:	10800017 	ldw	r2,0(r2)
 d000db0:	11c00317 	ldw	r7,12(r2)
 d000db4:	01034174 	movhi	r4,3333
 d000db8:	212cb104 	addi	r4,r4,-19772
 d000dbc:	01400044 	movi	r5,1
 d000dc0:	01800984 	movi	r6,38
 d000dc4:	d0025980 	call	d002598 <fwrite>
         fprintf(stderr, "\n[SSS]: Locking scheduler - endless loop.\n");
 d000dc8:	00834174 	movhi	r2,3333
 d000dcc:	108a2204 	addi	r2,r2,10376
 d000dd0:	10800017 	ldw	r2,0(r2)
 d000dd4:	11c00317 	ldw	r7,12(r2)
 d000dd8:	01034174 	movhi	r4,3333
 d000ddc:	212cbb04 	addi	r4,r4,-19732
 d000de0:	01400044 	movi	r5,1
 d000de4:	01800a84 	movi	r6,42
 d000de8:	d0025980 	call	d002598 <fwrite>
         while(1); /* Since scheduler is locked, loop halts all task activity.*/
 d000dec:	003fff06 	br	d000dec <alt_SSSErrorHandler+0x22c>
         break;
      case NONE:
         fprintf(stderr, "\n[SSS] FAULT_LEVEL is NONE.");
 d000df0:	00834174 	movhi	r2,3333
 d000df4:	108a2204 	addi	r2,r2,10376
 d000df8:	10800017 	ldw	r2,0(r2)
 d000dfc:	11c00317 	ldw	r7,12(r2)
 d000e00:	01034174 	movhi	r4,3333
 d000e04:	212cc604 	addi	r4,r4,-19688
 d000e08:	01400044 	movi	r5,1
 d000e0c:	018006c4 	movi	r6,27
 d000e10:	d0025980 	call	d002598 <fwrite>
         fprintf(stderr, 
 d000e14:	00834174 	movhi	r2,3333
 d000e18:	108a2204 	addi	r2,r2,10376
 d000e1c:	10800017 	ldw	r2,0(r2)
 d000e20:	11c00317 	ldw	r7,12(r2)
 d000e24:	01034174 	movhi	r4,3333
 d000e28:	212ccd04 	addi	r4,r4,-19660
 d000e2c:	01400044 	movi	r5,1
 d000e30:	01800f44 	movi	r6,61
 d000e34:	d0025980 	call	d002598 <fwrite>
            "\n[SSS] Informational error only, control returned to task to ");
         fprintf(stderr,
 d000e38:	00834174 	movhi	r2,3333
 d000e3c:	108a2204 	addi	r2,r2,10376
 d000e40:	10800017 	ldw	r2,0(r2)
 d000e44:	11c00317 	ldw	r7,12(r2)
 d000e48:	01034174 	movhi	r4,3333
 d000e4c:	212cdd04 	addi	r4,r4,-19596
 d000e50:	01400044 	movi	r5,1
 d000e54:	01800b84 	movi	r6,46
 d000e58:	d0025980 	call	d002598 <fwrite>
            "complete processing at the application level.\n");
         OSSchedUnlock(); /* Reenable Task Switching */ 
 d000e5c:	d00e2380 	call	d00e238 <OSSchedUnlock>
         return;         
 d000e60:	00000d06 	br	d000e98 <alt_SSSErrorHandler+0x2d8>
         break;
      default:
         printf("\n[SSS]: See STDERR (FAULT_LEVEL is Unknown).\n");
 d000e64:	01034174 	movhi	r4,3333
 d000e68:	212ce904 	addi	r4,r4,-19548
 d000e6c:	d002cc00 	call	d002cc0 <puts>
         fprintf(stderr, "\n[SSS] FAULT_LEVEL is unknown!?!\n");
 d000e70:	00834174 	movhi	r2,3333
 d000e74:	108a2204 	addi	r2,r2,10376
 d000e78:	10800017 	ldw	r2,0(r2)
 d000e7c:	11c00317 	ldw	r7,12(r2)
 d000e80:	01034174 	movhi	r4,3333
 d000e84:	212cf504 	addi	r4,r4,-19500
 d000e88:	01400044 	movi	r5,1
 d000e8c:	01800844 	movi	r6,33
 d000e90:	d0025980 	call	d002598 <fwrite>
   }
   while(1); /* Correct Program Flow never gets here. */
 d000e94:	003fff06 	br	d000e94 <alt_SSSErrorHandler+0x2d4>
}
 d000e98:	e037883a 	mov	sp,fp
 d000e9c:	dfc00117 	ldw	ra,4(sp)
 d000ea0:	df000017 	ldw	fp,0(sp)
 d000ea4:	dec00204 	addi	sp,sp,8
 d000ea8:	f800283a 	ret

0d000eac <SSSInitialTask>:
/* SSSInitialTask will initialize the NicheStack
 * TCP/IP Stack and then initialize the rest of the Simple Socket Server example 
 * RTOS structures and tasks. 
 */
void SSSInitialTask(void *task_data)
{
 d000eac:	defffc04 	addi	sp,sp,-16
 d000eb0:	dfc00315 	stw	ra,12(sp)
 d000eb4:	df000215 	stw	fp,8(sp)
 d000eb8:	df000204 	addi	fp,sp,8
 d000ebc:	e13fff15 	stw	r4,-4(fp)
   * NicheStack is initialized from a task, so that RTOS will have started, and 
   * I/O drivers are available.  Two tasks are created:
   *    "Inet main"  task with priority 2
   *    "clock tick" task with priority 3
   */   
  alt_iniche_init();
 d000ec0:	d029b100 	call	d029b10 <alt_iniche_init>
  netmain(); 
 d000ec4:	d024d580 	call	d024d58 <netmain>

  /* Wait for the network stack to be ready before proceeding. 
   * iniche_net_ready indicates that TCP/IP stack is ready, and IP address is obtained.
   */
  while (!iniche_net_ready)
 d000ec8:	00000206 	br	d000ed4 <SSSInitialTask+0x28>
    TK_SLEEP(1);
 d000ecc:	01000084 	movi	r4,2
 d000ed0:	d0153e80 	call	d0153e8 <OSTimeDly>
  netmain(); 

  /* Wait for the network stack to be ready before proceeding. 
   * iniche_net_ready indicates that TCP/IP stack is ready, and IP address is obtained.
   */
  while (!iniche_net_ready)
 d000ed4:	00834174 	movhi	r2,3333
 d000ed8:	108aad04 	addi	r2,r2,10932
 d000edc:	10800017 	ldw	r2,0(r2)
 d000ee0:	1005003a 	cmpeq	r2,r2,zero
 d000ee4:	103ff91e 	bne	r2,zero,d000ecc <SSSInitialTask+0x20>

  /* Now that the stack is running, perform the application initialization steps */
  
  /* Application Specific Task Launching Code Block Begin */

  printf("\nSimple Socket Server starting up\n");
 d000ee8:	01034174 	movhi	r4,3333
 d000eec:	212d0404 	addi	r4,r4,-19440
 d000ef0:	d002cc00 	call	d002cc0 <puts>

  /* Create the main simple socket server task. */
  TK_NEWTASK(&ssstask);
 d000ef4:	01034174 	movhi	r4,3333
 d000ef8:	21022a04 	addi	r4,r4,2216
 d000efc:	d0297d00 	call	d0297d0 <TK_NEWTASK>
  
  /*create os data structures */
  SSSCreateOSDataStructs(); 
 d000f00:	d001b340 	call	d001b34 <SSSCreateOSDataStructs>

  /* create the other tasks */
  SSSCreateTasks();
 d000f04:	d001bdc0 	call	d001bdc <SSSCreateTasks>

  /* Application Specific Task Launching Code Block End */
  
  /*This task is deleted because there is no need for it to run again */
  error_code = OSTaskDel(OS_PRIO_SELF);
 d000f08:	01003fc4 	movi	r4,255
 d000f0c:	d0142f00 	call	d0142f0 <OSTaskDel>
 d000f10:	e0bffe05 	stb	r2,-8(fp)
  alt_uCOSIIErrorHandler(error_code, 0);
 d000f14:	e13ffe03 	ldbu	r4,-8(fp)
 d000f18:	000b883a 	mov	r5,zero
 d000f1c:	d0003040 	call	d000304 <alt_uCOSIIErrorHandler>
  
  while (1); /* Correct Program Flow should never get here */
 d000f20:	003fff06 	br	d000f20 <SSSInitialTask+0x74>

0d000f24 <main>:

/* Main creates a single task, SSSInitialTask, and starts task scheduler.
 */

int main (int argc, char* argv[], char* envp[])
{
 d000f24:	defff504 	addi	sp,sp,-44
 d000f28:	dfc00a15 	stw	ra,40(sp)
 d000f2c:	df000915 	stw	fp,36(sp)
 d000f30:	df000904 	addi	fp,sp,36
 d000f34:	e13ffd15 	stw	r4,-12(fp)
 d000f38:	e17ffe15 	stw	r5,-8(fp)
 d000f3c:	e1bfff15 	stw	r6,-4(fp)
  
  INT8U error_code;

  /* Clear the RTOS timer */
  OSTimeSet(0);
 d000f40:	0009883a 	mov	r4,zero
 d000f44:	d0159180 	call	d015918 <OSTimeSet>

  /* SSSInitialTask will initialize the NicheStack
   * TCP/IP Stack and then initialize the rest of the Simple Socket Server example 
   * RTOS structures and tasks. 
   */  
  error_code = OSTaskCreateExt(SSSInitialTask,
 d000f48:	01834174 	movhi	r6,3333
 d000f4c:	3194a104 	addi	r6,r6,21124
 d000f50:	00800144 	movi	r2,5
 d000f54:	d8800015 	stw	r2,0(sp)
 d000f58:	00834174 	movhi	r2,3333
 d000f5c:	108ca104 	addi	r2,r2,12932
 d000f60:	d8800115 	stw	r2,4(sp)
 d000f64:	00820004 	movi	r2,2048
 d000f68:	d8800215 	stw	r2,8(sp)
 d000f6c:	d8000315 	stw	zero,12(sp)
 d000f70:	d8000415 	stw	zero,16(sp)
 d000f74:	01034034 	movhi	r4,3328
 d000f78:	2103ab04 	addi	r4,r4,3756
 d000f7c:	000b883a 	mov	r5,zero
 d000f80:	01c00144 	movi	r7,5
 d000f84:	d0140f00 	call	d0140f0 <OSTaskCreateExt>
 d000f88:	e0bffc05 	stb	r2,-16(fp)
                             SSS_INITIAL_TASK_PRIORITY,
                             SSSInitialTaskStk,
                             TASK_STACKSIZE,
                             NULL,
                             0);
  alt_uCOSIIErrorHandler(error_code, 0);
 d000f8c:	e13ffc03 	ldbu	r4,-16(fp)
 d000f90:	000b883a 	mov	r5,zero
 d000f94:	d0003040 	call	d000304 <alt_uCOSIIErrorHandler>

  /*
   * As with all MicroC/OS-II designs, once the initial thread(s) and 
   * associated RTOS resources are declared, we start the RTOS. That's it!
   */
  OSStart();
 d000f98:	d00e31c0 	call	d00e31c <OSStart>

  
  while(1); /* Correct Program Flow never gets here. */
 d000f9c:	003fff06 	br	d000f9c <main+0x78>

0d000fa0 <led_bit_toggle>:
 * Development Board which controls 8 LEDs, D0 - D7.
 * 
 */
 
void led_bit_toggle(OS_FLAGS bit)
{
 d000fa0:	defffc04 	addi	sp,sp,-16
 d000fa4:	dfc00315 	stw	ra,12(sp)
 d000fa8:	df000215 	stw	fp,8(sp)
 d000fac:	df000204 	addi	fp,sp,8
 d000fb0:	e13fff0d 	sth	r4,-4(fp)
    OS_FLAGS  led_8_val;
    INT8U error_code;
    
    led_8_val = OSFlagQuery(SSSLEDEventFlag, &error_code);
 d000fb4:	00834174 	movhi	r2,3333
 d000fb8:	108a7d04 	addi	r2,r2,10740
 d000fbc:	11000017 	ldw	r4,0(r2)
 d000fc0:	e17ffe84 	addi	r5,fp,-6
 d000fc4:	d010d6c0 	call	d010d6c <OSFlagQuery>
 d000fc8:	e0bffe0d 	sth	r2,-8(fp)
    alt_uCOSIIErrorHandler(error_code, 0);
 d000fcc:	e0bffe83 	ldbu	r2,-6(fp)
 d000fd0:	11003fcc 	andi	r4,r2,255
 d000fd4:	000b883a 	mov	r5,zero
 d000fd8:	d0003040 	call	d000304 <alt_uCOSIIErrorHandler>
    if (bit & led_8_val)
 d000fdc:	e0ffff0b 	ldhu	r3,-4(fp)
 d000fe0:	e0bffe0b 	ldhu	r2,-8(fp)
 d000fe4:	1884703a 	and	r2,r3,r2
 d000fe8:	10bfffcc 	andi	r2,r2,65535
 d000fec:	1005003a 	cmpeq	r2,r2,zero
 d000ff0:	10000d1e 	bne	r2,zero,d001028 <led_bit_toggle+0x88>
    {
       led_8_val = OSFlagPost(SSSLEDEventFlag, bit, OS_FLAG_CLR, &error_code);
 d000ff4:	00834174 	movhi	r2,3333
 d000ff8:	108a7d04 	addi	r2,r2,10740
 d000ffc:	11000017 	ldw	r4,0(r2)
 d001000:	e17fff0b 	ldhu	r5,-4(fp)
 d001004:	e1fffe84 	addi	r7,fp,-6
 d001008:	000d883a 	mov	r6,zero
 d00100c:	d0109c40 	call	d0109c4 <OSFlagPost>
 d001010:	e0bffe0d 	sth	r2,-8(fp)
       alt_uCOSIIErrorHandler(error_code, 0);
 d001014:	e0bffe83 	ldbu	r2,-6(fp)
 d001018:	11003fcc 	andi	r4,r2,255
 d00101c:	000b883a 	mov	r5,zero
 d001020:	d0003040 	call	d000304 <alt_uCOSIIErrorHandler>
 d001024:	00000c06 	br	d001058 <led_bit_toggle+0xb8>
    }
    else
    {
       led_8_val = OSFlagPost(SSSLEDEventFlag, bit, OS_FLAG_SET, &error_code);
 d001028:	00834174 	movhi	r2,3333
 d00102c:	108a7d04 	addi	r2,r2,10740
 d001030:	11000017 	ldw	r4,0(r2)
 d001034:	e17fff0b 	ldhu	r5,-4(fp)
 d001038:	e1fffe84 	addi	r7,fp,-6
 d00103c:	01800044 	movi	r6,1
 d001040:	d0109c40 	call	d0109c4 <OSFlagPost>
 d001044:	e0bffe0d 	sth	r2,-8(fp)
       alt_uCOSIIErrorHandler(error_code, 0);
 d001048:	e0bffe83 	ldbu	r2,-6(fp)
 d00104c:	11003fcc 	andi	r4,r2,255
 d001050:	000b883a 	mov	r5,zero
 d001054:	d0003040 	call	d000304 <alt_uCOSIIErrorHandler>
    }
    #ifdef LED_PIO_BASE
       IOWR_ALTERA_AVALON_PIO_DATA(LED_PIO_BASE, led_8_val);
 d001058:	e0fffe0b 	ldhu	r3,-8(fp)
 d00105c:	00800404 	movi	r2,16
 d001060:	10c00035 	stwio	r3,0(r2)
       printf("Value for LED_PIO_BASE set to %d.\n", (INT8U)led_8_val);
 d001064:	e0bffe0b 	ldhu	r2,-8(fp)
 d001068:	11403fcc 	andi	r5,r2,255
 d00106c:	01034174 	movhi	r4,3333
 d001070:	212d0d04 	addi	r4,r4,-19404
 d001074:	d0029980 	call	d002998 <printf>
    #endif
      
    return;
}
 d001078:	e037883a 	mov	sp,fp
 d00107c:	dfc00117 	ldw	ra,4(sp)
 d001080:	df000017 	ldw	fp,0(sp)
 d001084:	dec00204 	addi	sp,sp,8
 d001088:	f800283a 	ret

0d00108c <LED7SegLightshowTask>:
 * SSSLEDLightshowSem semaphore controlled in LEDManagementTask.
 * 
 */ 
 
void LED7SegLightshowTask()
{
 d00108c:	defffd04 	addi	sp,sp,-12
 d001090:	dfc00215 	stw	ra,8(sp)
 d001094:	df000115 	stw	fp,4(sp)
 d001098:	df000104 	addi	fp,sp,4
   {
    
      /* Wait 50 milliseconds between pattern updates, to make the pattern slow
       * enough for the human eye, and more impotantly, to give up control so
       * MicroC/OS-II can schedule other lower priority tasks. */ 
      OSTimeDlyHMSM(0,0,0,50);
 d00109c:	0009883a 	mov	r4,zero
 d0010a0:	000b883a 	mov	r5,zero
 d0010a4:	000d883a 	mov	r6,zero
 d0010a8:	01c00c84 	movi	r7,50
 d0010ac:	d0155340 	call	d015534 <OSTimeDlyHMSM>
      
      /* Check that we still have the SSSLEDLightshowSem semaphore. If we don't,
       * then wait until the LEDManagement task gives it back to us. */
      OSSemPend(SSSLEDLightshowSem, 0, &error_code);
 d0010b0:	00834174 	movhi	r2,3333
 d0010b4:	108a7c04 	addi	r2,r2,10736
 d0010b8:	11000017 	ldw	r4,0(r2)
 d0010bc:	e1bfff84 	addi	r6,fp,-2
 d0010c0:	000b883a 	mov	r5,zero
 d0010c4:	d0132540 	call	d013254 <OSSemPend>
      alt_uCOSIIErrorHandler(error_code, 0);
 d0010c8:	e0bfff83 	ldbu	r2,-2(fp)
 d0010cc:	11003fcc 	andi	r4,r2,255
 d0010d0:	000b883a 	mov	r5,zero
 d0010d4:	d0003040 	call	d000304 <alt_uCOSIIErrorHandler>
      #if SEVEN_SEG_PIO_BASE
         led_7_seg_val = rand();
         IOWR_ALTERA_AVALON_PIO_DATA(SEVEN_SEG_PIO_BASE, led_7_seg_val);
      #endif
      
      error_code = OSSemPost(SSSLEDLightshowSem);
 d0010d8:	00834174 	movhi	r2,3333
 d0010dc:	108a7c04 	addi	r2,r2,10736
 d0010e0:	11000017 	ldw	r4,0(r2)
 d0010e4:	d01364c0 	call	d01364c <OSSemPost>
 d0010e8:	e0bfff85 	stb	r2,-2(fp)
      alt_uCOSIIErrorHandler(error_code, 0);
 d0010ec:	e0bfff83 	ldbu	r2,-2(fp)
 d0010f0:	11003fcc 	andi	r4,r2,255
 d0010f4:	000b883a 	mov	r5,zero
 d0010f8:	d0003040 	call	d000304 <alt_uCOSIIErrorHandler>
      
   }
 d0010fc:	003fe706 	br	d00109c <LED7SegLightshowTask+0x10>

0d001100 <LEDManagementTask>:
 * The task will read the SSSLedCommandQ for an 
 * in-coming message command from the SSSSimpleSocketServerTask. 
 */
 
void LEDManagementTask()
{
 d001100:	defffa04 	addi	sp,sp,-24
 d001104:	dfc00515 	stw	ra,20(sp)
 d001108:	df000415 	stw	fp,16(sp)
 d00110c:	df000404 	addi	fp,sp,16
  INT32U led_command; 
  INT16U led_7_seg_val;
  BOOLEAN SSSLEDLightshowActive;
  INT8U error_code;
  
  led_7_seg_val = 0;
 d001110:	e03ffc8d 	sth	zero,-14(fp)
  SSSLEDLightshowActive = OS_TRUE;
 d001114:	00800044 	movi	r2,1
 d001118:	e0bffc05 	stb	r2,-16(fp)
 d00111c:	00000006 	br	d001120 <LEDManagementTask+0x20>
  
  while(1)
  {
    led_command = (INT32U)OSQPend(SSSLEDCommandQ, 0, &error_code);
 d001120:	00834174 	movhi	r2,3333
 d001124:	108a7b04 	addi	r2,r2,10732
 d001128:	11000017 	ldw	r4,0(r2)
 d00112c:	e1bffe04 	addi	r6,fp,-8
 d001130:	000b883a 	mov	r5,zero
 d001134:	d0121dc0 	call	d0121dc <OSQPend>
 d001138:	e0bffd15 	stw	r2,-12(fp)
   
    alt_uCOSIIErrorHandler(error_code, 0);
 d00113c:	e0bffe03 	ldbu	r2,-8(fp)
 d001140:	11003fcc 	andi	r4,r2,255
 d001144:	000b883a 	mov	r5,zero
 d001148:	d0003040 	call	d000304 <alt_uCOSIIErrorHandler>
        
    switch (led_command) {
 d00114c:	e0bffd17 	ldw	r2,-12(fp)
 d001150:	10bff404 	addi	r2,r2,-48
 d001154:	e0bfff15 	stw	r2,-4(fp)
 d001158:	e0ffff17 	ldw	r3,-4(fp)
 d00115c:	18800928 	cmpgeui	r2,r3,36
 d001160:	103fef1e 	bne	r2,zero,d001120 <LEDManagementTask+0x20>
 d001164:	e13fff17 	ldw	r4,-4(fp)
 d001168:	e13fff17 	ldw	r4,-4(fp)
 d00116c:	2105883a 	add	r2,r4,r4
 d001170:	1087883a 	add	r3,r2,r2
 d001174:	00834034 	movhi	r2,3328
 d001178:	10846204 	addi	r2,r2,4488
 d00117c:	1885883a 	add	r2,r3,r2
 d001180:	10800017 	ldw	r2,0(r2)
 d001184:	1000683a 	jmp	r2
 d001188:	0d001218 	cmpnei	r20,at,72
 d00118c:	0d001224 	muli	r20,at,72
 d001190:	0d001230 	cmpltui	r20,at,72
 d001194:	0d00123c 	xorhi	r20,at,72
 d001198:	0d001248 	cmpgei	r20,at,73
 d00119c:	0d001254 	ori	r20,at,73
 d0011a0:	0d001260 	cmpeqi	r20,at,73
 d0011a4:	0d00126c 	andhi	r20,at,73
 d0011a8:	0d001120 	cmpeqi	r20,at,68
 d0011ac:	0d001120 	cmpeqi	r20,at,68
 d0011b0:	0d001120 	cmpeqi	r20,at,68
 d0011b4:	0d001120 	cmpeqi	r20,at,68
 d0011b8:	0d001120 	cmpeqi	r20,at,68
 d0011bc:	0d001120 	cmpeqi	r20,at,68
 d0011c0:	0d001120 	cmpeqi	r20,at,68
 d0011c4:	0d001120 	cmpeqi	r20,at,68
 d0011c8:	0d001120 	cmpeqi	r20,at,68
 d0011cc:	0d001120 	cmpeqi	r20,at,68
 d0011d0:	0d001120 	cmpeqi	r20,at,68
 d0011d4:	0d001120 	cmpeqi	r20,at,68
 d0011d8:	0d001120 	cmpeqi	r20,at,68
 d0011dc:	0d001120 	cmpeqi	r20,at,68
 d0011e0:	0d001120 	cmpeqi	r20,at,68
 d0011e4:	0d001120 	cmpeqi	r20,at,68
 d0011e8:	0d001120 	cmpeqi	r20,at,68
 d0011ec:	0d001120 	cmpeqi	r20,at,68
 d0011f0:	0d001120 	cmpeqi	r20,at,68
 d0011f4:	0d001120 	cmpeqi	r20,at,68
 d0011f8:	0d001120 	cmpeqi	r20,at,68
 d0011fc:	0d001120 	cmpeqi	r20,at,68
 d001200:	0d001120 	cmpeqi	r20,at,68
 d001204:	0d001120 	cmpeqi	r20,at,68
 d001208:	0d001120 	cmpeqi	r20,at,68
 d00120c:	0d001120 	cmpeqi	r20,at,68
 d001210:	0d001120 	cmpeqi	r20,at,68
 d001214:	0d001278 	rdprs	r20,at,73
      case CMD_LEDS_BIT_0_TOGGLE:
         led_bit_toggle(BIT_0);
 d001218:	01000044 	movi	r4,1
 d00121c:	d000fa00 	call	d000fa0 <led_bit_toggle>
         break;
 d001220:	003fbf06 	br	d001120 <LEDManagementTask+0x20>
      case CMD_LEDS_BIT_1_TOGGLE:
         led_bit_toggle(BIT_1);
 d001224:	01000084 	movi	r4,2
 d001228:	d000fa00 	call	d000fa0 <led_bit_toggle>
         break;   
 d00122c:	003fbc06 	br	d001120 <LEDManagementTask+0x20>
      case CMD_LEDS_BIT_2_TOGGLE:
         led_bit_toggle(BIT_2);
 d001230:	01000104 	movi	r4,4
 d001234:	d000fa00 	call	d000fa0 <led_bit_toggle>
         break;
 d001238:	003fb906 	br	d001120 <LEDManagementTask+0x20>
      case CMD_LEDS_BIT_3_TOGGLE:
         led_bit_toggle(BIT_3);
 d00123c:	01000204 	movi	r4,8
 d001240:	d000fa00 	call	d000fa0 <led_bit_toggle>
         break;
 d001244:	003fb606 	br	d001120 <LEDManagementTask+0x20>
      case CMD_LEDS_BIT_4_TOGGLE:
         led_bit_toggle(BIT_4);
 d001248:	01000404 	movi	r4,16
 d00124c:	d000fa00 	call	d000fa0 <led_bit_toggle>
         break;
 d001250:	003fb306 	br	d001120 <LEDManagementTask+0x20>
      case CMD_LEDS_BIT_5_TOGGLE:
         led_bit_toggle(BIT_5);
 d001254:	01000804 	movi	r4,32
 d001258:	d000fa00 	call	d000fa0 <led_bit_toggle>
         break;
 d00125c:	003fb006 	br	d001120 <LEDManagementTask+0x20>
      case CMD_LEDS_BIT_6_TOGGLE:
         led_bit_toggle(BIT_6);
 d001260:	01001004 	movi	r4,64
 d001264:	d000fa00 	call	d000fa0 <led_bit_toggle>
         break;
 d001268:	003fad06 	br	d001120 <LEDManagementTask+0x20>
      case CMD_LEDS_BIT_7_TOGGLE:
         led_bit_toggle(BIT_7);
 d00126c:	01002004 	movi	r4,128
 d001270:	d000fa00 	call	d000fa0 <led_bit_toggle>
         break;
 d001274:	003faa06 	br	d001120 <LEDManagementTask+0x20>
         /* The SSSLEDLightshowSem semaphore is checked by LED7SegLightshowTask 
          * each time it updates 7 segment LED displays, U8 and U9.  Grab the 
          * semaphore (pend) away from the lightshow task to toggle the lightshow off, 
          * and give up the semaphore (post) to turn the lightshow back on.  
          */
         if (SSSLEDLightshowActive == OS_FALSE)
 d001278:	e0bffc03 	ldbu	r2,-16(fp)
 d00127c:	1004c03a 	cmpne	r2,r2,zero
 d001280:	10000c1e 	bne	r2,zero,d0012b4 <LEDManagementTask+0x1b4>
         {
             error_code = OSSemPost(SSSLEDLightshowSem);
 d001284:	00834174 	movhi	r2,3333
 d001288:	108a7c04 	addi	r2,r2,10736
 d00128c:	11000017 	ldw	r4,0(r2)
 d001290:	d01364c0 	call	d01364c <OSSemPost>
 d001294:	e0bffe05 	stb	r2,-8(fp)
             alt_uCOSIIErrorHandler(error_code, 0);
 d001298:	e0bffe03 	ldbu	r2,-8(fp)
 d00129c:	11003fcc 	andi	r4,r2,255
 d0012a0:	000b883a 	mov	r5,zero
 d0012a4:	d0003040 	call	d000304 <alt_uCOSIIErrorHandler>
             SSSLEDLightshowActive = OS_TRUE;
 d0012a8:	00800044 	movi	r2,1
 d0012ac:	e0bffc05 	stb	r2,-16(fp)
 d0012b0:	003f9b06 	br	d001120 <LEDManagementTask+0x20>
         }
         else
         {
             OSSemPend(SSSLEDLightshowSem, 0, &error_code);
 d0012b4:	00834174 	movhi	r2,3333
 d0012b8:	108a7c04 	addi	r2,r2,10736
 d0012bc:	11000017 	ldw	r4,0(r2)
 d0012c0:	e1bffe04 	addi	r6,fp,-8
 d0012c4:	000b883a 	mov	r5,zero
 d0012c8:	d0132540 	call	d013254 <OSSemPend>
             alt_uCOSIIErrorHandler(error_code, 0); 
 d0012cc:	e0bffe03 	ldbu	r2,-8(fp)
 d0012d0:	11003fcc 	andi	r4,r2,255
 d0012d4:	000b883a 	mov	r5,zero
 d0012d8:	d0003040 	call	d000304 <alt_uCOSIIErrorHandler>
             SSSLEDLightshowActive = OS_FALSE;
 d0012dc:	e03ffc05 	stb	zero,-16(fp)
         break;
      default:     
        /* Discard unknown LED commands. */
        break;
    } /* switch led_command */
  } /* while(1) */
 d0012e0:	003f8f06 	br	d001120 <LEDManagementTask+0x20>

0d0012e4 <get_mac_addr>:
* Read the MAC address in a board specific way. Prompt user to enter serial 
* number to generate MAC address if failed to read from flash.
*
*/
int get_mac_addr(NET net, unsigned char mac_addr[6])
{
 d0012e4:	defffb04 	addi	sp,sp,-20
 d0012e8:	dfc00415 	stw	ra,16(sp)
 d0012ec:	df000315 	stw	fp,12(sp)
 d0012f0:	df000304 	addi	fp,sp,12
 d0012f4:	e13ffe15 	stw	r4,-8(fp)
 d0012f8:	e17fff15 	stw	r5,-4(fp)
    error_t error = 0;
 d0012fc:	e03ffd15 	stw	zero,-12(fp)
    
    error = get_board_mac_addr(mac_addr);
 d001300:	e13fff17 	ldw	r4,-4(fp)
 d001304:	d00185c0 	call	d00185c <get_board_mac_addr>
 d001308:	e0bffd15 	stw	r2,-12(fp)
    
    if(error)
 d00130c:	e0bffd17 	ldw	r2,-12(fp)
 d001310:	1005003a 	cmpeq	r2,r2,zero
 d001314:	1000031e 	bne	r2,zero,d001324 <get_mac_addr+0x40>
    {
        /* Failed read MAC address from flash, prompt user to enter serial 
           number to generate MAC address. */
        error = generate_mac_addr(mac_addr);
 d001318:	e13fff17 	ldw	r4,-4(fp)
 d00131c:	d0017200 	call	d001720 <generate_mac_addr>
 d001320:	e0bffd15 	stw	r2,-12(fp)
    }
    return error;
 d001324:	e0bffd17 	ldw	r2,-12(fp)
}
 d001328:	e037883a 	mov	sp,fp
 d00132c:	dfc00117 	ldw	ra,4(sp)
 d001330:	df000017 	ldw	fp,0(sp)
 d001334:	dec00204 	addi	sp,sp,8
 d001338:	f800283a 	ret

0d00133c <get_ip_addr>:
int get_ip_addr(alt_iniche_dev *p_dev,
                ip_addr* ipaddr,
                ip_addr* netmask,
                ip_addr* gw,
                int* use_dhcp)
{
 d00133c:	defffb04 	addi	sp,sp,-20
 d001340:	df000415 	stw	fp,16(sp)
 d001344:	df000404 	addi	fp,sp,16
 d001348:	e13ffc15 	stw	r4,-16(fp)
 d00134c:	e17ffd15 	stw	r5,-12(fp)
 d001350:	e1bffe15 	stw	r6,-8(fp)
 d001354:	e1ffff15 	stw	r7,-4(fp)

    IP4_ADDR(*ipaddr, IPADDR0, IPADDR1, IPADDR2, IPADDR3);
 d001358:	e0bffd17 	ldw	r2,-12(fp)
 d00135c:	10000015 	stw	zero,0(r2)
    IP4_ADDR(*gw, GWADDR0, GWADDR1, GWADDR2, GWADDR3);
 d001360:	e0bfff17 	ldw	r2,-4(fp)
 d001364:	10000015 	stw	zero,0(r2)
    IP4_ADDR(*netmask, MSKADDR0, MSKADDR1, MSKADDR2, MSKADDR3);
 d001368:	e0fffe17 	ldw	r3,-8(fp)
 d00136c:	00804034 	movhi	r2,256
 d001370:	10bfffc4 	addi	r2,r2,-1
 d001374:	18800015 	stw	r2,0(r3)

#ifdef DHCP_CLIENT
    *use_dhcp = 1;
 d001378:	e0c00117 	ldw	r3,4(fp)
 d00137c:	00800044 	movi	r2,1
 d001380:	18800015 	stw	r2,0(r3)
        ip4_addr3(*ipaddr),
        ip4_addr4(*ipaddr));
#endif /* not DHCP_CLIENT */

    /* Non-standard API: return 1 for success */
    return 1;
 d001384:	00800044 	movi	r2,1
}
 d001388:	e037883a 	mov	sp,fp
 d00138c:	df000017 	ldw	fp,0(sp)
 d001390:	dec00104 	addi	sp,sp,4
 d001394:	f800283a 	ret

0d001398 <get_serial_number>:
*
* Prompt user to enter 9-digit serial number. 
*
*/
alt_u32 get_serial_number (void)
{
 d001398:	defff804 	addi	sp,sp,-32
 d00139c:	dfc00715 	stw	ra,28(sp)
 d0013a0:	df000615 	stw	fp,24(sp)
 d0013a4:	dc000515 	stw	r16,20(sp)
 d0013a8:	df000504 	addi	fp,sp,20
    alt_u32 ser_num = 0;
 d0013ac:	e03ffc15 	stw	zero,-16(fp)
    char serial_number[9];
    int i = 0;
 d0013b0:	e03ffb15 	stw	zero,-20(fp)
    
    while(!ser_num)
 d0013b4:	00006506 	br	d00154c <get_serial_number+0x1b4>
    {
        printf("Please enter your 9-digit serial number. This is printed on a \n");
 d0013b8:	01034174 	movhi	r4,3333
 d0013bc:	212d1604 	addi	r4,r4,-19368
 d0013c0:	d002cc00 	call	d002cc0 <puts>
        printf("label under your Nios dev. board. The first 3 digits of the \n");
 d0013c4:	01034174 	movhi	r4,3333
 d0013c8:	212d2604 	addi	r4,r4,-19304
 d0013cc:	d002cc00 	call	d002cc0 <puts>
        printf("label are ASJ and the serial number follows this.\n -->");
 d0013d0:	01034174 	movhi	r4,3333
 d0013d4:	212d3604 	addi	r4,r4,-19240
 d0013d8:	d0029980 	call	d002998 <printf>
        
        for(i=0; i<9; i++)
 d0013dc:	e03ffb15 	stw	zero,-20(fp)
 d0013e0:	00002806 	br	d001484 <get_serial_number+0xec>
        {
            serial_number[i] = getchar();
 d0013e4:	e43ffb17 	ldw	r16,-20(fp)
 d0013e8:	00834174 	movhi	r2,3333
 d0013ec:	108a2204 	addi	r2,r2,10376
 d0013f0:	10800017 	ldw	r2,0(r2)
 d0013f4:	11000117 	ldw	r4,4(r2)
 d0013f8:	d0025d80 	call	d0025d8 <getc>
 d0013fc:	1007883a 	mov	r3,r2
 d001400:	e0bffd04 	addi	r2,fp,-12
 d001404:	1405883a 	add	r2,r2,r16
 d001408:	10c00005 	stb	r3,0(r2)
            putchar(serial_number[i]);
 d00140c:	e0fffb17 	ldw	r3,-20(fp)
 d001410:	e0bffd04 	addi	r2,fp,-12
 d001414:	10c5883a 	add	r2,r2,r3
 d001418:	10800003 	ldbu	r2,0(r2)
 d00141c:	11003fcc 	andi	r4,r2,255
 d001420:	2100201c 	xori	r4,r4,128
 d001424:	213fe004 	addi	r4,r4,-128
 d001428:	00834174 	movhi	r2,3333
 d00142c:	108a2204 	addi	r2,r2,10376
 d001430:	10800017 	ldw	r2,0(r2)
 d001434:	11400217 	ldw	r5,8(r2)
 d001438:	d002a100 	call	d002a10 <putc>
            
            /* Handle backspaces.  How civilized. */
            if ((serial_number[i] == 0x08) && (i >= 0)) 
 d00143c:	e0fffb17 	ldw	r3,-20(fp)
 d001440:	e0bffd04 	addi	r2,fp,-12
 d001444:	10c5883a 	add	r2,r2,r3
 d001448:	10800003 	ldbu	r2,0(r2)
 d00144c:	10803fcc 	andi	r2,r2,255
 d001450:	1080201c 	xori	r2,r2,128
 d001454:	10bfe004 	addi	r2,r2,-128
 d001458:	10800218 	cmpnei	r2,r2,8
 d00145c:	1000061e 	bne	r2,zero,d001478 <get_serial_number+0xe0>
 d001460:	e0bffb17 	ldw	r2,-20(fp)
 d001464:	1004803a 	cmplt	r2,r2,zero
 d001468:	1000031e 	bne	r2,zero,d001478 <get_serial_number+0xe0>
            {
                i--;
 d00146c:	e0bffb17 	ldw	r2,-20(fp)
 d001470:	10bfffc4 	addi	r2,r2,-1
 d001474:	e0bffb15 	stw	r2,-20(fp)
    {
        printf("Please enter your 9-digit serial number. This is printed on a \n");
        printf("label under your Nios dev. board. The first 3 digits of the \n");
        printf("label are ASJ and the serial number follows this.\n -->");
        
        for(i=0; i<9; i++)
 d001478:	e0bffb17 	ldw	r2,-20(fp)
 d00147c:	10800044 	addi	r2,r2,1
 d001480:	e0bffb15 	stw	r2,-20(fp)
 d001484:	e0bffb17 	ldw	r2,-20(fp)
 d001488:	10800250 	cmplti	r2,r2,9
 d00148c:	103fd51e 	bne	r2,zero,d0013e4 <get_serial_number+0x4c>
            if ((serial_number[i] == 0x08) && (i >= 0)) 
            {
                i--;
            }
        }
        printf("\n");
 d001490:	01000284 	movi	r4,10
 d001494:	d002bfc0 	call	d002bfc <putchar>
                
        for(i=0; i<9; i++)
 d001498:	e03ffb15 	stw	zero,-20(fp)
 d00149c:	00002806 	br	d001540 <get_serial_number+0x1a8>
        {
            if (isdigit(serial_number[i]))
 d0014a0:	e0fffb17 	ldw	r3,-20(fp)
 d0014a4:	e0bffd04 	addi	r2,fp,-12
 d0014a8:	10c5883a 	add	r2,r2,r3
 d0014ac:	10800003 	ldbu	r2,0(r2)
 d0014b0:	10803fcc 	andi	r2,r2,255
 d0014b4:	1080201c 	xori	r2,r2,128
 d0014b8:	10bfe004 	addi	r2,r2,-128
 d0014bc:	1007883a 	mov	r3,r2
 d0014c0:	00834174 	movhi	r2,3333
 d0014c4:	108a2104 	addi	r2,r2,10372
 d0014c8:	10800017 	ldw	r2,0(r2)
 d0014cc:	1885883a 	add	r2,r3,r2
 d0014d0:	10800003 	ldbu	r2,0(r2)
 d0014d4:	10803fcc 	andi	r2,r2,255
 d0014d8:	1080010c 	andi	r2,r2,4
 d0014dc:	1005003a 	cmpeq	r2,r2,zero
 d0014e0:	1000121e 	bne	r2,zero,d00152c <get_serial_number+0x194>
            {
                ser_num *= 10;
 d0014e4:	e0bffc17 	ldw	r2,-16(fp)
 d0014e8:	108002a4 	muli	r2,r2,10
 d0014ec:	e0bffc15 	stw	r2,-16(fp)
                ser_num += serial_number[i] - '0';
 d0014f0:	e0fffb17 	ldw	r3,-20(fp)
 d0014f4:	e0bffd04 	addi	r2,fp,-12
 d0014f8:	10c5883a 	add	r2,r2,r3
 d0014fc:	10800003 	ldbu	r2,0(r2)
 d001500:	10c03fcc 	andi	r3,r2,255
 d001504:	18c0201c 	xori	r3,r3,128
 d001508:	18ffe004 	addi	r3,r3,-128
 d00150c:	e0bffc17 	ldw	r2,-16(fp)
 d001510:	1885883a 	add	r2,r3,r2
 d001514:	10bff404 	addi	r2,r2,-48
 d001518:	e0bffc15 	stw	r2,-16(fp)
                i--;
            }
        }
        printf("\n");
                
        for(i=0; i<9; i++)
 d00151c:	e0bffb17 	ldw	r2,-20(fp)
 d001520:	10800044 	addi	r2,r2,1
 d001524:	e0bffb15 	stw	r2,-20(fp)
 d001528:	00000506 	br	d001540 <get_serial_number+0x1a8>
                ser_num *= 10;
                ser_num += serial_number[i] - '0';
            }
            else
            {
                ser_num = 0;
 d00152c:	e03ffc15 	stw	zero,-16(fp)
                printf("Serial number only contains decimal digits and is non-zero\n");
 d001530:	01034174 	movhi	r4,3333
 d001534:	212d4404 	addi	r4,r4,-19184
 d001538:	d002cc00 	call	d002cc0 <puts>
                break;
 d00153c:	00000306 	br	d00154c <get_serial_number+0x1b4>
                i--;
            }
        }
        printf("\n");
                
        for(i=0; i<9; i++)
 d001540:	e0bffb17 	ldw	r2,-20(fp)
 d001544:	10800250 	cmplti	r2,r2,9
 d001548:	103fd51e 	bne	r2,zero,d0014a0 <get_serial_number+0x108>
{
    alt_u32 ser_num = 0;
    char serial_number[9];
    int i = 0;
    
    while(!ser_num)
 d00154c:	e0bffc17 	ldw	r2,-16(fp)
 d001550:	1005003a 	cmpeq	r2,r2,zero
 d001554:	103f981e 	bne	r2,zero,d0013b8 <get_serial_number+0x20>
                break;
            }
        }
    }
    
    return ser_num;
 d001558:	e0bffc17 	ldw	r2,-16(fp)
}
 d00155c:	e037883a 	mov	sp,fp
 d001560:	dfc00217 	ldw	ra,8(sp)
 d001564:	df000117 	ldw	fp,4(sp)
 d001568:	dc000017 	ldw	r16,0(sp)
 d00156c:	dec00304 	addi	sp,sp,12
 d001570:	f800283a 	ret

0d001574 <generate_and_store_mac_addr>:
 * sections. These fail-safe static settings are compatible with previous
 * Nios Ethernet designs, and allow the "factory-safe" design to behave 
 * as expected if the last flash sector is erased.
 */
error_t generate_and_store_mac_addr()
{
 d001574:	deffef04 	addi	sp,sp,-68
 d001578:	dfc01015 	stw	ra,64(sp)
 d00157c:	df000f15 	stw	fp,60(sp)
 d001580:	df000f04 	addi	fp,sp,60
    error_t error = -1;
 d001584:	00bfffc4 	movi	r2,-1
 d001588:	e0bff715 	stw	r2,-36(fp)
    alt_u32 ser_num = 0;
 d00158c:	e03ff615 	stw	zero,-40(fp)
    char flash_content[32];
    alt_flash_fd* flash_handle;
    
    printf("Can't read the MAC address from your board (this probably means\n");
 d001590:	01034174 	movhi	r4,3333
 d001594:	212d5304 	addi	r4,r4,-19124
 d001598:	d002cc00 	call	d002cc0 <puts>
    printf("that your flash was erased). We will assign you a MAC address and\n");
 d00159c:	01034174 	movhi	r4,3333
 d0015a0:	212d6304 	addi	r4,r4,-19060
 d0015a4:	d002cc00 	call	d002cc0 <puts>
    printf("static network settings\n\n");
 d0015a8:	01034174 	movhi	r4,3333
 d0015ac:	212d7404 	addi	r4,r4,-18992
 d0015b0:	d002cc00 	call	d002cc0 <puts>
    
    ser_num = get_serial_number();
 d0015b4:	d0013980 	call	d001398 <get_serial_number>
 d0015b8:	e0bff615 	stw	r2,-40(fp)
  
    if (ser_num)
 d0015bc:	e0bff617 	ldw	r2,-40(fp)
 d0015c0:	1005003a 	cmpeq	r2,r2,zero
 d0015c4:	1000501e 	bne	r2,zero,d001708 <generate_and_store_mac_addr+0x194>
    {
        /* This says the image is safe */
        flash_content[0] = 0xfe;
 d0015c8:	00bfff84 	movi	r2,-2
 d0015cc:	e0bff805 	stb	r2,-32(fp)
        flash_content[1] = 0x5a;
 d0015d0:	00801684 	movi	r2,90
 d0015d4:	e0bff845 	stb	r2,-31(fp)
        flash_content[2] = 0x0;
 d0015d8:	e03ff885 	stb	zero,-30(fp)
        flash_content[3] = 0x0;
 d0015dc:	e03ff8c5 	stb	zero,-29(fp)
        
        /* This is the Altera Vendor ID */
        flash_content[4] = 0x0;
 d0015e0:	e03ff905 	stb	zero,-28(fp)
        flash_content[5] = 0x7;
 d0015e4:	008001c4 	movi	r2,7
 d0015e8:	e0bff945 	stb	r2,-27(fp)
        flash_content[6] = 0xed;
 d0015ec:	00bffb44 	movi	r2,-19
 d0015f0:	e0bff985 	stb	r2,-26(fp)
        
        /* Reserverd Board identifier for erase boards */
        flash_content[7] = 0xFF;
 d0015f4:	00bfffc4 	movi	r2,-1
 d0015f8:	e0bff9c5 	stb	r2,-25(fp)
        flash_content[8] = (ser_num & 0xff00) >> 8;
 d0015fc:	e0bff617 	ldw	r2,-40(fp)
 d001600:	10bfc00c 	andi	r2,r2,65280
 d001604:	1004d23a 	srli	r2,r2,8
 d001608:	e0bffa05 	stb	r2,-24(fp)
        flash_content[9] = ser_num & 0xff;
 d00160c:	e0bff617 	ldw	r2,-40(fp)
 d001610:	e0bffa45 	stb	r2,-23(fp)
        
        /* Then comes a 16-bit "flags" field */
        flash_content[10] = 0xFF;
 d001614:	00bfffc4 	movi	r2,-1
 d001618:	e0bffa85 	stb	r2,-22(fp)
        flash_content[11] = 0xFF;
 d00161c:	00bfffc4 	movi	r2,-1
 d001620:	e0bffac5 	stb	r2,-21(fp)
        
        /* Then comes the static IP address */
        flash_content[12] = IPADDR0;
 d001624:	e03ffb05 	stb	zero,-20(fp)
        flash_content[13] = IPADDR1;
 d001628:	e03ffb45 	stb	zero,-19(fp)
        flash_content[14] = IPADDR2;
 d00162c:	e03ffb85 	stb	zero,-18(fp)
        flash_content[15] = IPADDR3;
 d001630:	e03ffbc5 	stb	zero,-17(fp)
        
        /* Then comes the static nameserver address */
        flash_content[16] = 0xFF;
 d001634:	00bfffc4 	movi	r2,-1
 d001638:	e0bffc05 	stb	r2,-16(fp)
        flash_content[17] = 0xFF;
 d00163c:	00bfffc4 	movi	r2,-1
 d001640:	e0bffc45 	stb	r2,-15(fp)
        flash_content[18] = 0xFF;
 d001644:	00bfffc4 	movi	r2,-1
 d001648:	e0bffc85 	stb	r2,-14(fp)
        flash_content[19] = 0xFF;
 d00164c:	00bfffc4 	movi	r2,-1
 d001650:	e0bffcc5 	stb	r2,-13(fp)
        
        /* Then comes the static subnet mask */
        flash_content[20] = MSKADDR0;
 d001654:	00bfffc4 	movi	r2,-1
 d001658:	e0bffd05 	stb	r2,-12(fp)
        flash_content[21] = MSKADDR1;
 d00165c:	00bfffc4 	movi	r2,-1
 d001660:	e0bffd45 	stb	r2,-11(fp)
        flash_content[22] = MSKADDR2;
 d001664:	00bfffc4 	movi	r2,-1
 d001668:	e0bffd85 	stb	r2,-10(fp)
        flash_content[23] = MSKADDR3;
 d00166c:	e03ffdc5 	stb	zero,-9(fp)
        
        /* Then comes the static gateway address */
        flash_content[24] = GWADDR0;
 d001670:	e03ffe05 	stb	zero,-8(fp)
        flash_content[25] = GWADDR1;
 d001674:	e03ffe45 	stb	zero,-7(fp)
        flash_content[26] = GWADDR2;
 d001678:	e03ffe85 	stb	zero,-6(fp)
        flash_content[27] = GWADDR3;
 d00167c:	e03ffec5 	stb	zero,-5(fp)
        
        /* And finally whether to use DHCP - set all bits to be safe */
        flash_content[28] = 0xFF;
 d001680:	00bfffc4 	movi	r2,-1
 d001684:	e0bfff05 	stb	r2,-4(fp)
        flash_content[29] = 0xFF;
 d001688:	00bfffc4 	movi	r2,-1
 d00168c:	e0bfff45 	stb	r2,-3(fp)
        flash_content[30] = 0xFF;
 d001690:	00bfffc4 	movi	r2,-1
 d001694:	e0bfff85 	stb	r2,-2(fp)
        flash_content[31] = 0xFF;
 d001698:	00bfffc4 	movi	r2,-1
 d00169c:	e0bfffc5 	stb	r2,-1(fp)
        
        /* Write the MAC address to flash */
        flash_handle = alt_flash_open_dev(EXT_FLASH_NAME);
 d0016a0:	01034174 	movhi	r4,3333
 d0016a4:	212d7b04 	addi	r4,r4,-18964
 d0016a8:	d00cddc0 	call	d00cddc <alt_flash_open_dev>
 d0016ac:	e0bff515 	stw	r2,-44(fp)
        if (flash_handle)
 d0016b0:	e0bff517 	ldw	r2,-44(fp)
 d0016b4:	1005003a 	cmpeq	r2,r2,zero
 d0016b8:	1000131e 	bne	r2,zero,d001708 <generate_and_store_mac_addr+0x194>
        {
            alt_write_flash(flash_handle,
 d0016bc:	d0a05717 	ldw	r2,-32420(gp)
 d0016c0:	1007883a 	mov	r3,r2
 d0016c4:	e0bff517 	ldw	r2,-44(fp)
 d0016c8:	e0bff115 	stw	r2,-60(fp)
 d0016cc:	e0fff215 	stw	r3,-56(fp)
 d0016d0:	e0bff804 	addi	r2,fp,-32
 d0016d4:	e0bff315 	stw	r2,-52(fp)
 d0016d8:	00800804 	movi	r2,32
 d0016dc:	e0bff415 	stw	r2,-48(fp)
                                                           alt_flash_fd* fd, 
                                                           int offset, 
                                                           const void* src_addr, 
                                                           int length )
{
  return fd->write( fd, offset, src_addr, length );
 d0016e0:	e0bff117 	ldw	r2,-60(fp)
 d0016e4:	10800517 	ldw	r2,20(r2)
 d0016e8:	e13ff117 	ldw	r4,-60(fp)
 d0016ec:	e17ff217 	ldw	r5,-56(fp)
 d0016f0:	e1bff317 	ldw	r6,-52(fp)
 d0016f4:	e1fff417 	ldw	r7,-48(fp)
 d0016f8:	103ee83a 	callr	r2
                            last_flash_sector_offset,
                            flash_content,
                            32);
            alt_flash_close_dev(flash_handle);
 d0016fc:	e13ff517 	ldw	r4,-44(fp)
 d001700:	d00ce580 	call	d00ce58 <alt_flash_close_dev>
            error = 0;
 d001704:	e03ff715 	stw	zero,-36(fp)
        }
    }

    return error;    
 d001708:	e0bff717 	ldw	r2,-36(fp)
}
 d00170c:	e037883a 	mov	sp,fp
 d001710:	dfc00117 	ldw	ra,4(sp)
 d001714:	df000017 	ldw	fp,0(sp)
 d001718:	dec00204 	addi	sp,sp,8
 d00171c:	f800283a 	ret

0d001720 <generate_mac_addr>:
 * Development Board serial number is 040800017, the corresponding ethernet 
 * number generated will be 00:07:ED:FF:8F:11.
 * 
 */
error_t generate_mac_addr(unsigned char mac_addr[6])
{
 d001720:	defff804 	addi	sp,sp,-32
 d001724:	dfc00715 	stw	ra,28(sp)
 d001728:	df000615 	stw	fp,24(sp)
 d00172c:	df000604 	addi	fp,sp,24
 d001730:	e13fff15 	stw	r4,-4(fp)
    error_t error = -1;
 d001734:	00bfffc4 	movi	r2,-1
 d001738:	e0bffe15 	stw	r2,-8(fp)
    alt_u32 ser_num = 0;
 d00173c:	e03ffd15 	stw	zero,-12(fp)
    
    printf("\nCan't read the MAC address from your board. We will assign you\n");
 d001740:	01034174 	movhi	r4,3333
 d001744:	212d7f04 	addi	r4,r4,-18948
 d001748:	d002cc00 	call	d002cc0 <puts>
    printf("a MAC address.\n\n");
 d00174c:	01034174 	movhi	r4,3333
 d001750:	212d8f04 	addi	r4,r4,-18884
 d001754:	d002cc00 	call	d002cc0 <puts>
    
    ser_num = get_serial_number();
 d001758:	d0013980 	call	d001398 <get_serial_number>
 d00175c:	e0bffd15 	stw	r2,-12(fp)
  
    if (ser_num)
 d001760:	e0bffd17 	ldw	r2,-12(fp)
 d001764:	1005003a 	cmpeq	r2,r2,zero
 d001768:	1000361e 	bne	r2,zero,d001844 <generate_mac_addr+0x124>
    {
        /* This is the Altera Vendor ID */
        mac_addr[0] = 0x0;
 d00176c:	e0bfff17 	ldw	r2,-4(fp)
 d001770:	10000005 	stb	zero,0(r2)
        mac_addr[1] = 0x7;
 d001774:	e0bfff17 	ldw	r2,-4(fp)
 d001778:	10c00044 	addi	r3,r2,1
 d00177c:	008001c4 	movi	r2,7
 d001780:	18800005 	stb	r2,0(r3)
        mac_addr[2] = 0xed;
 d001784:	e0bfff17 	ldw	r2,-4(fp)
 d001788:	10c00084 	addi	r3,r2,2
 d00178c:	00bffb44 	movi	r2,-19
 d001790:	18800005 	stb	r2,0(r3)
        
        /* Reserverd Board identifier */
        mac_addr[3] = 0xFF;
 d001794:	e0bfff17 	ldw	r2,-4(fp)
 d001798:	10c000c4 	addi	r3,r2,3
 d00179c:	00bfffc4 	movi	r2,-1
 d0017a0:	18800005 	stb	r2,0(r3)
        mac_addr[4] = (ser_num & 0xff00) >> 8;
 d0017a4:	e0bfff17 	ldw	r2,-4(fp)
 d0017a8:	10c00104 	addi	r3,r2,4
 d0017ac:	e0bffd17 	ldw	r2,-12(fp)
 d0017b0:	10bfc00c 	andi	r2,r2,65280
 d0017b4:	1004d23a 	srli	r2,r2,8
 d0017b8:	18800005 	stb	r2,0(r3)
        mac_addr[5] = ser_num & 0xff;
 d0017bc:	e0bfff17 	ldw	r2,-4(fp)
 d0017c0:	10c00144 	addi	r3,r2,5
 d0017c4:	e0bffd17 	ldw	r2,-12(fp)
 d0017c8:	18800005 	stb	r2,0(r3)
        
        printf("Your Ethernet MAC address is %02x:%02x:%02x:%02x:%02x:%02x\n", 
 d0017cc:	e0bfff17 	ldw	r2,-4(fp)
 d0017d0:	10800003 	ldbu	r2,0(r2)
 d0017d4:	11403fcc 	andi	r5,r2,255
 d0017d8:	e0bfff17 	ldw	r2,-4(fp)
 d0017dc:	10800044 	addi	r2,r2,1
 d0017e0:	10800003 	ldbu	r2,0(r2)
 d0017e4:	11803fcc 	andi	r6,r2,255
 d0017e8:	e0bfff17 	ldw	r2,-4(fp)
 d0017ec:	10800084 	addi	r2,r2,2
 d0017f0:	10800003 	ldbu	r2,0(r2)
 d0017f4:	11c03fcc 	andi	r7,r2,255
 d0017f8:	e0bfff17 	ldw	r2,-4(fp)
 d0017fc:	108000c4 	addi	r2,r2,3
 d001800:	10800003 	ldbu	r2,0(r2)
 d001804:	10c03fcc 	andi	r3,r2,255
 d001808:	e0bfff17 	ldw	r2,-4(fp)
 d00180c:	10800104 	addi	r2,r2,4
 d001810:	10800003 	ldbu	r2,0(r2)
 d001814:	11003fcc 	andi	r4,r2,255
 d001818:	e0bfff17 	ldw	r2,-4(fp)
 d00181c:	10800144 	addi	r2,r2,5
 d001820:	10800003 	ldbu	r2,0(r2)
 d001824:	10803fcc 	andi	r2,r2,255
 d001828:	d8c00015 	stw	r3,0(sp)
 d00182c:	d9000115 	stw	r4,4(sp)
 d001830:	d8800215 	stw	r2,8(sp)
 d001834:	01034174 	movhi	r4,3333
 d001838:	212d9304 	addi	r4,r4,-18868
 d00183c:	d0029980 	call	d002998 <printf>
            mac_addr[2],
            mac_addr[3],
            mac_addr[4],
            mac_addr[5]);
        
        error = 0;
 d001840:	e03ffe15 	stw	zero,-8(fp)
    }
  
    return error;    
 d001844:	e0bffe17 	ldw	r2,-8(fp)
}
 d001848:	e037883a 	mov	sp,fp
 d00184c:	dfc00117 	ldw	ra,4(sp)
 d001850:	df000017 	ldw	fp,0(sp)
 d001854:	dec00204 	addi	sp,sp,8
 d001858:	f800283a 	ret

0d00185c <get_board_mac_addr>:
*
* Read the MAC address in a board specific way
*
*/
error_t get_board_mac_addr(unsigned char mac_addr[6])
{
 d00185c:	defff804 	addi	sp,sp,-32
 d001860:	dfc00715 	stw	ra,28(sp)
 d001864:	df000615 	stw	fp,24(sp)
 d001868:	df000604 	addi	fp,sp,24
 d00186c:	e13fff15 	stw	r4,-4(fp)
    error_t error = 0;
 d001870:	e03ffe15 	stw	zero,-8(fp)
    alt_u32 signature;
    
    /* Get the flash sector with the MAC address. */
    error = FindLastFlashSectorOffset(&last_flash_sector_offset);
 d001874:	d1205704 	addi	r4,gp,-32420
 d001878:	d0019f00 	call	d0019f0 <FindLastFlashSectorOffset>
 d00187c:	e0bffe15 	stw	r2,-8(fp)
    if (!error)
 d001880:	e0bffe17 	ldw	r2,-8(fp)
 d001884:	1004c03a 	cmpne	r2,r2,zero
 d001888:	1000041e 	bne	r2,zero,d00189c <get_board_mac_addr+0x40>
        last_flash_sector = EXT_FLASH_BASE + last_flash_sector_offset;
 d00188c:	d0a05717 	ldw	r2,-32420(gp)
 d001890:	00c20034 	movhi	r3,2048
 d001894:	10c5883a 	add	r2,r2,r3
 d001898:	d0a05815 	stw	r2,-32416(gp)
     * valid network settings are present, indicated by a signature of 0x00005afe at 
     * the first address of the last flash sector.  This hex value is chosen as the 
     * signature since it looks like the english word "SAFE", meaning that it is 
     * safe to use these network address values.  
    */
    if (!error)
 d00189c:	e0bffe17 	ldw	r2,-8(fp)
 d0018a0:	1004c03a 	cmpne	r2,r2,zero
 d0018a4:	1000081e 	bne	r2,zero,d0018c8 <get_board_mac_addr+0x6c>
    {
        signature = IORD_32DIRECT(last_flash_sector, 0);
 d0018a8:	d0a05817 	ldw	r2,-32416(gp)
 d0018ac:	10800037 	ldwio	r2,0(r2)
 d0018b0:	e0bffd15 	stw	r2,-12(fp)
        if (signature != 0x00005afe)
 d0018b4:	e0bffd17 	ldw	r2,-12(fp)
 d0018b8:	1096bfa0 	cmpeqi	r2,r2,23294
 d0018bc:	1000021e 	bne	r2,zero,d0018c8 <get_board_mac_addr+0x6c>
        {
          error = generate_and_store_mac_addr();
 d0018c0:	d0015740 	call	d001574 <generate_and_store_mac_addr>
 d0018c4:	e0bffe15 	stw	r2,-8(fp)
        }
    }
  
    if (!error)
 d0018c8:	e0bffe17 	ldw	r2,-8(fp)
 d0018cc:	1004c03a 	cmpne	r2,r2,zero
 d0018d0:	1000411e 	bne	r2,zero,d0019d8 <get_board_mac_addr+0x17c>
    {
        mac_addr[0] = IORD_8DIRECT(last_flash_sector, 4);
 d0018d4:	d0a05817 	ldw	r2,-32416(gp)
 d0018d8:	10800104 	addi	r2,r2,4
 d0018dc:	10800023 	ldbuio	r2,0(r2)
 d0018e0:	1007883a 	mov	r3,r2
 d0018e4:	e0bfff17 	ldw	r2,-4(fp)
 d0018e8:	10c00005 	stb	r3,0(r2)
        mac_addr[1] = IORD_8DIRECT(last_flash_sector, 5);
 d0018ec:	e0bfff17 	ldw	r2,-4(fp)
 d0018f0:	10c00044 	addi	r3,r2,1
 d0018f4:	d0a05817 	ldw	r2,-32416(gp)
 d0018f8:	10800144 	addi	r2,r2,5
 d0018fc:	10800023 	ldbuio	r2,0(r2)
 d001900:	18800005 	stb	r2,0(r3)
        mac_addr[2] = IORD_8DIRECT(last_flash_sector, 6);
 d001904:	e0bfff17 	ldw	r2,-4(fp)
 d001908:	10c00084 	addi	r3,r2,2
 d00190c:	d0a05817 	ldw	r2,-32416(gp)
 d001910:	10800184 	addi	r2,r2,6
 d001914:	10800023 	ldbuio	r2,0(r2)
 d001918:	18800005 	stb	r2,0(r3)
        mac_addr[3] = IORD_8DIRECT(last_flash_sector, 7);
 d00191c:	e0bfff17 	ldw	r2,-4(fp)
 d001920:	10c000c4 	addi	r3,r2,3
 d001924:	d0a05817 	ldw	r2,-32416(gp)
 d001928:	108001c4 	addi	r2,r2,7
 d00192c:	10800023 	ldbuio	r2,0(r2)
 d001930:	18800005 	stb	r2,0(r3)
        mac_addr[4] = IORD_8DIRECT(last_flash_sector, 8);
 d001934:	e0bfff17 	ldw	r2,-4(fp)
 d001938:	10c00104 	addi	r3,r2,4
 d00193c:	d0a05817 	ldw	r2,-32416(gp)
 d001940:	10800204 	addi	r2,r2,8
 d001944:	10800023 	ldbuio	r2,0(r2)
 d001948:	18800005 	stb	r2,0(r3)
        mac_addr[5] = IORD_8DIRECT(last_flash_sector, 9);
 d00194c:	e0bfff17 	ldw	r2,-4(fp)
 d001950:	10c00144 	addi	r3,r2,5
 d001954:	d0a05817 	ldw	r2,-32416(gp)
 d001958:	10800244 	addi	r2,r2,9
 d00195c:	10800023 	ldbuio	r2,0(r2)
 d001960:	18800005 	stb	r2,0(r3)
    
        printf("Your Ethernet MAC address is %02x:%02x:%02x:%02x:%02x:%02x\n", 
 d001964:	e0bfff17 	ldw	r2,-4(fp)
 d001968:	10800003 	ldbu	r2,0(r2)
 d00196c:	11403fcc 	andi	r5,r2,255
 d001970:	e0bfff17 	ldw	r2,-4(fp)
 d001974:	10800044 	addi	r2,r2,1
 d001978:	10800003 	ldbu	r2,0(r2)
 d00197c:	11803fcc 	andi	r6,r2,255
 d001980:	e0bfff17 	ldw	r2,-4(fp)
 d001984:	10800084 	addi	r2,r2,2
 d001988:	10800003 	ldbu	r2,0(r2)
 d00198c:	11c03fcc 	andi	r7,r2,255
 d001990:	e0bfff17 	ldw	r2,-4(fp)
 d001994:	108000c4 	addi	r2,r2,3
 d001998:	10800003 	ldbu	r2,0(r2)
 d00199c:	10c03fcc 	andi	r3,r2,255
 d0019a0:	e0bfff17 	ldw	r2,-4(fp)
 d0019a4:	10800104 	addi	r2,r2,4
 d0019a8:	10800003 	ldbu	r2,0(r2)
 d0019ac:	11003fcc 	andi	r4,r2,255
 d0019b0:	e0bfff17 	ldw	r2,-4(fp)
 d0019b4:	10800144 	addi	r2,r2,5
 d0019b8:	10800003 	ldbu	r2,0(r2)
 d0019bc:	10803fcc 	andi	r2,r2,255
 d0019c0:	d8c00015 	stw	r3,0(sp)
 d0019c4:	d9000115 	stw	r4,4(sp)
 d0019c8:	d8800215 	stw	r2,8(sp)
 d0019cc:	01034174 	movhi	r4,3333
 d0019d0:	212d9304 	addi	r4,r4,-18868
 d0019d4:	d0029980 	call	d002998 <printf>
            mac_addr[4],
            mac_addr[5]);
    
    }
    
    return error;
 d0019d8:	e0bffe17 	ldw	r2,-8(fp)
}
 d0019dc:	e037883a 	mov	sp,fp
 d0019e0:	dfc00117 	ldw	ra,4(sp)
 d0019e4:	df000017 	ldw	fp,0(sp)
 d0019e8:	dec00204 	addi	sp,sp,8
 d0019ec:	f800283a 	ret

0d0019f0 <FindLastFlashSectorOffset>:
 * in pLastFlashSectorOffset.
 */

int FindLastFlashSectorOffset(
    alt_u32                     *pLastFlashSectorOffset)
{
 d0019f0:	defff304 	addi	sp,sp,-52
 d0019f4:	dfc00c15 	stw	ra,48(sp)
 d0019f8:	df000b15 	stw	fp,44(sp)
 d0019fc:	df000b04 	addi	fp,sp,44
 d001a00:	e13fff15 	stw	r4,-4(fp)
    flash_region                *regions;
    int                         numRegions;
    flash_region                *pLastRegion;
    int                         lastFlashSectorOffset;
    int                         n;
    int                         error = 0;
 d001a04:	e03ff815 	stw	zero,-32(fp)

    /* Open the flash device. */
    fd = alt_flash_open_dev(EXT_FLASH_NAME);
 d001a08:	01034174 	movhi	r4,3333
 d001a0c:	212d7b04 	addi	r4,r4,-18964
 d001a10:	d00cddc0 	call	d00cddc <alt_flash_open_dev>
 d001a14:	e0bffc15 	stw	r2,-16(fp)
    if (fd <= 0)
 d001a18:	e0bffc17 	ldw	r2,-16(fp)
 d001a1c:	1004c03a 	cmpne	r2,r2,zero
 d001a20:	1000021e 	bne	r2,zero,d001a2c <FindLastFlashSectorOffset+0x3c>
        error = -1;
 d001a24:	00bfffc4 	movi	r2,-1
 d001a28:	e0bff815 	stw	r2,-32(fp)

    /* Get the flash info. */
    if (!error)
 d001a2c:	e0bff817 	ldw	r2,-32(fp)
 d001a30:	1004c03a 	cmpne	r2,r2,zero
 d001a34:	10000d1e 	bne	r2,zero,d001a6c <FindLastFlashSectorOffset+0x7c>
 d001a38:	e0bffc17 	ldw	r2,-16(fp)
 d001a3c:	e0bff515 	stw	r2,-44(fp)
 d001a40:	e0bffd04 	addi	r2,fp,-12
 d001a44:	e0bff615 	stw	r2,-40(fp)
 d001a48:	e0bffe04 	addi	r2,fp,-8
 d001a4c:	e0bff715 	stw	r2,-36(fp)
 */
static __inline__ int __attribute__ ((always_inline)) alt_get_flash_info( 
                                      alt_flash_fd* fd, flash_region** info, 
                                      int* number_of_regions)
{
  return fd->get_info( fd, info, number_of_regions);
 d001a50:	e0bff517 	ldw	r2,-44(fp)
 d001a54:	10800717 	ldw	r2,28(r2)
 d001a58:	e13ff517 	ldw	r4,-44(fp)
 d001a5c:	e17ff617 	ldw	r5,-40(fp)
 d001a60:	e1bff717 	ldw	r6,-36(fp)
 d001a64:	103ee83a 	callr	r2
        error = alt_get_flash_info(fd, &regions, &numRegions);
 d001a68:	e0bff815 	stw	r2,-32(fp)

    /* Find the last flash sector. */
    if (!error)
 d001a6c:	e0bff817 	ldw	r2,-32(fp)
 d001a70:	1004c03a 	cmpne	r2,r2,zero
 d001a74:	1000231e 	bne	r2,zero,d001b04 <FindLastFlashSectorOffset+0x114>
    {
        pLastRegion = &(regions[0]);
 d001a78:	e0bffd17 	ldw	r2,-12(fp)
 d001a7c:	e0bffb15 	stw	r2,-20(fp)
        for (n = 1; n < numRegions; n++)
 d001a80:	00800044 	movi	r2,1
 d001a84:	e0bff915 	stw	r2,-28(fp)
 d001a88:	00001206 	br	d001ad4 <FindLastFlashSectorOffset+0xe4>
        {
            if (regions[n].offset > pLastRegion->offset)
 d001a8c:	e0bff917 	ldw	r2,-28(fp)
 d001a90:	1004913a 	slli	r2,r2,4
 d001a94:	1007883a 	mov	r3,r2
 d001a98:	e0bffd17 	ldw	r2,-12(fp)
 d001a9c:	1885883a 	add	r2,r3,r2
 d001aa0:	10c00017 	ldw	r3,0(r2)
 d001aa4:	e0bffb17 	ldw	r2,-20(fp)
 d001aa8:	10800017 	ldw	r2,0(r2)
 d001aac:	10c0060e 	bge	r2,r3,d001ac8 <FindLastFlashSectorOffset+0xd8>
                pLastRegion = &(regions[n]);
 d001ab0:	e0bff917 	ldw	r2,-28(fp)
 d001ab4:	1004913a 	slli	r2,r2,4
 d001ab8:	1007883a 	mov	r3,r2
 d001abc:	e0bffd17 	ldw	r2,-12(fp)
 d001ac0:	1885883a 	add	r2,r3,r2
 d001ac4:	e0bffb15 	stw	r2,-20(fp)

    /* Find the last flash sector. */
    if (!error)
    {
        pLastRegion = &(regions[0]);
        for (n = 1; n < numRegions; n++)
 d001ac8:	e0bff917 	ldw	r2,-28(fp)
 d001acc:	10800044 	addi	r2,r2,1
 d001ad0:	e0bff915 	stw	r2,-28(fp)
 d001ad4:	e0fffe17 	ldw	r3,-8(fp)
 d001ad8:	e0bff917 	ldw	r2,-28(fp)
 d001adc:	10ffeb16 	blt	r2,r3,d001a8c <FindLastFlashSectorOffset+0x9c>
        {
            if (regions[n].offset > pLastRegion->offset)
                pLastRegion = &(regions[n]);
        }
        lastFlashSectorOffset =   pLastRegion->offset
 d001ae0:	e0bffb17 	ldw	r2,-20(fp)
 d001ae4:	10c00017 	ldw	r3,0(r2)
 d001ae8:	e0bffb17 	ldw	r2,-20(fp)
 d001aec:	10800117 	ldw	r2,4(r2)
 d001af0:	1887883a 	add	r3,r3,r2
 d001af4:	e0bffb17 	ldw	r2,-20(fp)
 d001af8:	10800317 	ldw	r2,12(r2)
 d001afc:	1885c83a 	sub	r2,r3,r2
 d001b00:	e0bffa15 	stw	r2,-24(fp)
                                + pLastRegion->region_size
                                - pLastRegion->block_size;
    }

    /* Return results. */
    if (!error)
 d001b04:	e0bff817 	ldw	r2,-32(fp)
 d001b08:	1004c03a 	cmpne	r2,r2,zero
 d001b0c:	1000031e 	bne	r2,zero,d001b1c <FindLastFlashSectorOffset+0x12c>
        *pLastFlashSectorOffset = lastFlashSectorOffset;
 d001b10:	e0fffa17 	ldw	r3,-24(fp)
 d001b14:	e0bfff17 	ldw	r2,-4(fp)
 d001b18:	10c00015 	stw	r3,0(r2)

    return (error);
 d001b1c:	e0bff817 	ldw	r2,-32(fp)
}
 d001b20:	e037883a 	mov	sp,fp
 d001b24:	dfc00117 	ldw	ra,4(sp)
 d001b28:	df000017 	ldw	fp,0(sp)
 d001b2c:	dec00204 	addi	sp,sp,8
 d001b30:	f800283a 	ret

0d001b34 <SSSCreateOSDataStructs>:
/*
 * Create our MicroC/OS-II resources. All of the resources beginning with 
 * "SSS" are declared in this file, and created in this function.
 */
void SSSCreateOSDataStructs(void)
{
 d001b34:	defffd04 	addi	sp,sp,-12
 d001b38:	dfc00215 	stw	ra,8(sp)
 d001b3c:	df000115 	stw	fp,4(sp)
 d001b40:	df000104 	addi	fp,sp,4
  /*
  * Create the resource for our MicroC/OS-II Queue for sending commands 
  * received on the TCP/IP socket from the SSSSimpleSocketServerTask()
  * to the LEDManagementTask().
  */
  SSSLEDCommandQ = OSQCreate(&SSSLEDCommandQTbl[0], SSS_LED_COMMAND_Q_SIZE);
 d001b44:	01034174 	movhi	r4,3333
 d001b48:	211ca104 	addi	r4,r4,29316
 d001b4c:	01400784 	movi	r5,30
 d001b50:	d011c000 	call	d011c00 <OSQCreate>
 d001b54:	d0a05a15 	stw	r2,-32408(gp)
  if (!SSSLEDCommandQ)
 d001b58:	d0a05a17 	ldw	r2,-32408(gp)
 d001b5c:	1004c03a 	cmpne	r2,r2,zero
 d001b60:	1000041e 	bne	r2,zero,d001b74 <SSSCreateOSDataStructs+0x40>
  {
     alt_uCOSIIErrorHandler(EXPANDED_DIAGNOSIS_CODE, 
 d001b64:	01003fc4 	movi	r4,255
 d001b68:	01434174 	movhi	r5,3333
 d001b6c:	296da204 	addi	r5,r5,-18808
 d001b70:	d0003040 	call	d000304 <alt_uCOSIIErrorHandler>
  * toggle the lightshow off, and gives up the semaphore to turn the lightshow
  * back on.  The LEDTask does this in response to the CMD_LEDS_LIGHTSHOW
  * command sent from the SSSSimpleSocketServerTask when the user sends the 
  * toggle lightshow command over the TCPIP socket.
  */
  SSSLEDLightshowSem = OSSemCreate(1);
 d001b74:	01000044 	movi	r4,1
 d001b78:	d012ea00 	call	d012ea0 <OSSemCreate>
 d001b7c:	d0a05b15 	stw	r2,-32404(gp)
  if (!SSSLEDLightshowSem)
 d001b80:	d0a05b17 	ldw	r2,-32404(gp)
 d001b84:	1004c03a 	cmpne	r2,r2,zero
 d001b88:	1000041e 	bne	r2,zero,d001b9c <SSSCreateOSDataStructs+0x68>
  {
     alt_uCOSIIErrorHandler(EXPANDED_DIAGNOSIS_CODE, 
 d001b8c:	01003fc4 	movi	r4,255
 d001b90:	01434174 	movhi	r5,3333
 d001b94:	296dab04 	addi	r5,r5,-18772
 d001b98:	d0003040 	call	d000304 <alt_uCOSIIErrorHandler>
  
 /*
  * Create our MicroC/OS-II LED Event Flag.  Each flag corresponds to one of
  * the LEDs on the Nios Development board, D0 - D7. 
  */   
  SSSLEDEventFlag = OSFlagCreate(0, &error_code);
 d001b9c:	0009883a 	mov	r4,zero
 d001ba0:	e17fff04 	addi	r5,fp,-4
 d001ba4:	d00fc9c0 	call	d00fc9c <OSFlagCreate>
 d001ba8:	d0a05c15 	stw	r2,-32400(gp)
  if (!SSSLEDEventFlag)
 d001bac:	d0a05c17 	ldw	r2,-32400(gp)
 d001bb0:	1004c03a 	cmpne	r2,r2,zero
 d001bb4:	1000041e 	bne	r2,zero,d001bc8 <SSSCreateOSDataStructs+0x94>
  {
     alt_uCOSIIErrorHandler(error_code, 0);
 d001bb8:	e0bfff03 	ldbu	r2,-4(fp)
 d001bbc:	11003fcc 	andi	r4,r2,255
 d001bc0:	000b883a 	mov	r5,zero
 d001bc4:	d0003040 	call	d000304 <alt_uCOSIIErrorHandler>
  }
}
 d001bc8:	e037883a 	mov	sp,fp
 d001bcc:	dfc00117 	ldw	ra,4(sp)
 d001bd0:	df000017 	ldw	fp,0(sp)
 d001bd4:	dec00204 	addi	sp,sp,8
 d001bd8:	f800283a 	ret

0d001bdc <SSSCreateTasks>:
/* This function creates tasks used in this example which do not use sockets.
 * Tasks which use Interniche sockets must be created with TK_NEWTASK.
 */
 
void SSSCreateTasks(void)
{
 d001bdc:	defff804 	addi	sp,sp,-32
 d001be0:	dfc00715 	stw	ra,28(sp)
 d001be4:	df000615 	stw	fp,24(sp)
 d001be8:	df000604 	addi	fp,sp,24
   INT8U error_code;
  
   error_code = OSTaskCreateExt(LED7SegLightshowTask,
 d001bec:	01834174 	movhi	r6,3333
 d001bf0:	319ca004 	addi	r6,r6,29312
 d001bf4:	00800484 	movi	r2,18
 d001bf8:	d8800015 	stw	r2,0(sp)
 d001bfc:	00834174 	movhi	r2,3333
 d001c00:	1094a104 	addi	r2,r2,21124
 d001c04:	d8800115 	stw	r2,4(sp)
 d001c08:	00820004 	movi	r2,2048
 d001c0c:	d8800215 	stw	r2,8(sp)
 d001c10:	d8000315 	stw	zero,12(sp)
 d001c14:	d8000415 	stw	zero,16(sp)
 d001c18:	01034034 	movhi	r4,3328
 d001c1c:	21042304 	addi	r4,r4,4236
 d001c20:	000b883a 	mov	r5,zero
 d001c24:	01c00484 	movi	r7,18
 d001c28:	d0140f00 	call	d0140f0 <OSTaskCreateExt>
 d001c2c:	e0bfff05 	stb	r2,-4(fp)
                             LED7SegLightshowTaskStk,
                             TASK_STACKSIZE,
                             NULL,
                             0);
   
   alt_uCOSIIErrorHandler(error_code, 0);
 d001c30:	e13fff03 	ldbu	r4,-4(fp)
 d001c34:	000b883a 	mov	r5,zero
 d001c38:	d0003040 	call	d000304 <alt_uCOSIIErrorHandler>
  
   error_code = OSTaskCreateExt(LEDManagementTask,
 d001c3c:	018341b4 	movhi	r6,3334
 d001c40:	31a4be04 	addi	r6,r6,-27912
 d001c44:	008001c4 	movi	r2,7
 d001c48:	d8800015 	stw	r2,0(sp)
 d001c4c:	00834174 	movhi	r2,3333
 d001c50:	109cbf04 	addi	r2,r2,29436
 d001c54:	d8800115 	stw	r2,4(sp)
 d001c58:	00820004 	movi	r2,2048
 d001c5c:	d8800215 	stw	r2,8(sp)
 d001c60:	d8000315 	stw	zero,12(sp)
 d001c64:	d8000415 	stw	zero,16(sp)
 d001c68:	01034034 	movhi	r4,3328
 d001c6c:	21044004 	addi	r4,r4,4352
 d001c70:	000b883a 	mov	r5,zero
 d001c74:	01c001c4 	movi	r7,7
 d001c78:	d0140f00 	call	d0140f0 <OSTaskCreateExt>
 d001c7c:	e0bfff05 	stb	r2,-4(fp)
                              LEDManagementTaskStk,
                              TASK_STACKSIZE,
                              NULL,
                              0);

   alt_uCOSIIErrorHandler(error_code, 0);
 d001c80:	e13fff03 	ldbu	r4,-4(fp)
 d001c84:	000b883a 	mov	r5,zero
 d001c88:	d0003040 	call	d000304 <alt_uCOSIIErrorHandler>

}
 d001c8c:	e037883a 	mov	sp,fp
 d001c90:	dfc00117 	ldw	ra,4(sp)
 d001c94:	df000017 	ldw	fp,0(sp)
 d001c98:	dec00204 	addi	sp,sp,8
 d001c9c:	f800283a 	ret

0d001ca0 <sss_reset_connection>:
 * to a reliable initial state. Note that we set our socket (FD) number to
 * -1 to easily determine whether the connection is in a "reset, ready to go" 
 * state.
 */
void sss_reset_connection(SSSConn* conn)
{
 d001ca0:	defffd04 	addi	sp,sp,-12
 d001ca4:	dfc00215 	stw	ra,8(sp)
 d001ca8:	df000115 	stw	fp,4(sp)
 d001cac:	df000104 	addi	fp,sp,4
 d001cb0:	e13fff15 	stw	r4,-4(fp)
  memset(conn, 0, sizeof(SSSConn));
 d001cb4:	e0bfff17 	ldw	r2,-4(fp)
 d001cb8:	1009883a 	mov	r4,r2
 d001cbc:	01817c04 	movi	r6,1520
 d001cc0:	000b883a 	mov	r5,zero
 d001cc4:	d0028800 	call	d002880 <memset>

  conn->fd = -1;
 d001cc8:	e0ffff17 	ldw	r3,-4(fp)
 d001ccc:	00bfffc4 	movi	r2,-1
 d001cd0:	18800115 	stw	r2,4(r3)
  conn->state = READY;
 d001cd4:	e0bfff17 	ldw	r2,-4(fp)
 d001cd8:	10000015 	stw	zero,0(r2)
  conn->rx_wr_pos = conn->rx_buffer;
 d001cdc:	e0bfff17 	ldw	r2,-4(fp)
 d001ce0:	10c00304 	addi	r3,r2,12
 d001ce4:	e0bfff17 	ldw	r2,-4(fp)
 d001ce8:	10c17b15 	stw	r3,1516(r2)
  conn->rx_rd_pos = conn->rx_buffer;
 d001cec:	e0bfff17 	ldw	r2,-4(fp)
 d001cf0:	10c00304 	addi	r3,r2,12
 d001cf4:	e0bfff17 	ldw	r2,-4(fp)
 d001cf8:	10c17a15 	stw	r3,1512(r2)
  return;
}
 d001cfc:	e037883a 	mov	sp,fp
 d001d00:	dfc00117 	ldw	ra,4(sp)
 d001d04:	df000017 	ldw	fp,0(sp)
 d001d08:	dec00204 	addi	sp,sp,8
 d001d0c:	f800283a 	ret

0d001d10 <sss_send_menu>:
 * sss_send_menu()
 * 
 * This routine will transmit the menu out to the telent client.
 */
void sss_send_menu(SSSConn* conn)
{
 d001d10:	defe8504 	addi	sp,sp,-1516
 d001d14:	dfc17a15 	stw	ra,1512(sp)
 d001d18:	df017915 	stw	fp,1508(sp)
 d001d1c:	df017904 	addi	fp,sp,1508
 d001d20:	e13fff15 	stw	r4,-4(fp)
  alt_u8  tx_buf[SSS_TX_BUF_SIZE];
  alt_u8 *tx_wr_pos = tx_buf;
 d001d24:	e0be8804 	addi	r2,fp,-1504
 d001d28:	e0be8715 	stw	r2,-1508(fp)

  tx_wr_pos += sprintf(tx_wr_pos,"=================================\n\r");
 d001d2c:	e0be8717 	ldw	r2,-1508(fp)
 d001d30:	00c34174 	movhi	r3,3333
 d001d34:	18edb504 	addi	r3,r3,-18732
 d001d38:	1009883a 	mov	r4,r2
 d001d3c:	180b883a 	mov	r5,r3
 d001d40:	01800904 	movi	r6,36
 d001d44:	d0027000 	call	d002700 <memcpy>
 d001d48:	e0be8717 	ldw	r2,-1508(fp)
 d001d4c:	108008c4 	addi	r2,r2,35
 d001d50:	e0be8715 	stw	r2,-1508(fp)
  tx_wr_pos += sprintf(tx_wr_pos,"Nios II Simple Socket Server Menu\n\r");
 d001d54:	e0be8717 	ldw	r2,-1508(fp)
 d001d58:	00c34174 	movhi	r3,3333
 d001d5c:	18edbe04 	addi	r3,r3,-18696
 d001d60:	1009883a 	mov	r4,r2
 d001d64:	180b883a 	mov	r5,r3
 d001d68:	01800904 	movi	r6,36
 d001d6c:	d0027000 	call	d002700 <memcpy>
 d001d70:	e0be8717 	ldw	r2,-1508(fp)
 d001d74:	108008c4 	addi	r2,r2,35
 d001d78:	e0be8715 	stw	r2,-1508(fp)
  tx_wr_pos += sprintf(tx_wr_pos,"=================================\n\r");
 d001d7c:	e0be8717 	ldw	r2,-1508(fp)
 d001d80:	00c34174 	movhi	r3,3333
 d001d84:	18edb504 	addi	r3,r3,-18732
 d001d88:	1009883a 	mov	r4,r2
 d001d8c:	180b883a 	mov	r5,r3
 d001d90:	01800904 	movi	r6,36
 d001d94:	d0027000 	call	d002700 <memcpy>
 d001d98:	e0be8717 	ldw	r2,-1508(fp)
 d001d9c:	108008c4 	addi	r2,r2,35
 d001da0:	e0be8715 	stw	r2,-1508(fp)
  tx_wr_pos += sprintf(tx_wr_pos,"0-7: Toggle board LEDs D0 - D7\n\r");
 d001da4:	e0be8717 	ldw	r2,-1508(fp)
 d001da8:	00c34174 	movhi	r3,3333
 d001dac:	18edc704 	addi	r3,r3,-18660
 d001db0:	1009883a 	mov	r4,r2
 d001db4:	180b883a 	mov	r5,r3
 d001db8:	01800844 	movi	r6,33
 d001dbc:	d0027000 	call	d002700 <memcpy>
 d001dc0:	e0be8717 	ldw	r2,-1508(fp)
 d001dc4:	10800804 	addi	r2,r2,32
 d001dc8:	e0be8715 	stw	r2,-1508(fp)
  tx_wr_pos += sprintf(tx_wr_pos,"S: 7-Segment LED Light Show\n\r");
 d001dcc:	e0be8717 	ldw	r2,-1508(fp)
 d001dd0:	00c34174 	movhi	r3,3333
 d001dd4:	18edd004 	addi	r3,r3,-18624
 d001dd8:	1009883a 	mov	r4,r2
 d001ddc:	180b883a 	mov	r5,r3
 d001de0:	01800784 	movi	r6,30
 d001de4:	d0027000 	call	d002700 <memcpy>
 d001de8:	e0be8717 	ldw	r2,-1508(fp)
 d001dec:	10800744 	addi	r2,r2,29
 d001df0:	e0be8715 	stw	r2,-1508(fp)
  tx_wr_pos += sprintf(tx_wr_pos,"Q: Terminate session\n\r");
 d001df4:	e0be8717 	ldw	r2,-1508(fp)
 d001df8:	00c34174 	movhi	r3,3333
 d001dfc:	18edd804 	addi	r3,r3,-18592
 d001e00:	1009883a 	mov	r4,r2
 d001e04:	180b883a 	mov	r5,r3
 d001e08:	018005c4 	movi	r6,23
 d001e0c:	d0027000 	call	d002700 <memcpy>
 d001e10:	e0be8717 	ldw	r2,-1508(fp)
 d001e14:	10800584 	addi	r2,r2,22
 d001e18:	e0be8715 	stw	r2,-1508(fp)
  tx_wr_pos += sprintf(tx_wr_pos,"=================================\n\r");
 d001e1c:	e0be8717 	ldw	r2,-1508(fp)
 d001e20:	00c34174 	movhi	r3,3333
 d001e24:	18edb504 	addi	r3,r3,-18732
 d001e28:	1009883a 	mov	r4,r2
 d001e2c:	180b883a 	mov	r5,r3
 d001e30:	01800904 	movi	r6,36
 d001e34:	d0027000 	call	d002700 <memcpy>
 d001e38:	e0be8717 	ldw	r2,-1508(fp)
 d001e3c:	108008c4 	addi	r2,r2,35
 d001e40:	e0be8715 	stw	r2,-1508(fp)
  tx_wr_pos += sprintf(tx_wr_pos,"Enter your choice & press return:\n\r");
 d001e44:	e0be8717 	ldw	r2,-1508(fp)
 d001e48:	00c34174 	movhi	r3,3333
 d001e4c:	18edde04 	addi	r3,r3,-18568
 d001e50:	1009883a 	mov	r4,r2
 d001e54:	180b883a 	mov	r5,r3
 d001e58:	01800904 	movi	r6,36
 d001e5c:	d0027000 	call	d002700 <memcpy>
 d001e60:	e0be8717 	ldw	r2,-1508(fp)
 d001e64:	108008c4 	addi	r2,r2,35
 d001e68:	e0be8715 	stw	r2,-1508(fp)

  send(conn->fd, tx_buf, tx_wr_pos - tx_buf, 0);
 d001e6c:	e0bfff17 	ldw	r2,-4(fp)
 d001e70:	11000117 	ldw	r4,4(r2)
 d001e74:	e17e8804 	addi	r5,fp,-1504
 d001e78:	e0fe8717 	ldw	r3,-1508(fp)
 d001e7c:	e0be8804 	addi	r2,fp,-1504
 d001e80:	188dc83a 	sub	r6,r3,r2
 d001e84:	000f883a 	mov	r7,zero
 d001e88:	d02d70c0 	call	d02d70c <t_send>
  
  return;
}
 d001e8c:	e037883a 	mov	sp,fp
 d001e90:	dfc00117 	ldw	ra,4(sp)
 d001e94:	df000017 	ldw	fp,0(sp)
 d001e98:	dec00204 	addi	sp,sp,8
 d001e9c:	f800283a 	ret

0d001ea0 <sss_handle_accept>:
 * reject the incoming request by immediately closing the new socket.
 * 
 * We'll also print out the client's IP address.
 */
void sss_handle_accept(int listen_socket, SSSConn* conn)
{
 d001ea0:	defff604 	addi	sp,sp,-40
 d001ea4:	dfc00915 	stw	ra,36(sp)
 d001ea8:	df000815 	stw	fp,32(sp)
 d001eac:	df000804 	addi	fp,sp,32
 d001eb0:	e13ffe15 	stw	r4,-8(fp)
 d001eb4:	e17fff15 	stw	r5,-4(fp)
  int                 socket, len;
  struct sockaddr_in  incoming_addr;

  len = sizeof(incoming_addr);
 d001eb8:	00800404 	movi	r2,16
 d001ebc:	e0bff915 	stw	r2,-28(fp)

  if ((conn)->fd == -1)
 d001ec0:	e0bfff17 	ldw	r2,-4(fp)
 d001ec4:	10800117 	ldw	r2,4(r2)
 d001ec8:	10bfffd8 	cmpnei	r2,r2,-1
 d001ecc:	1000191e 	bne	r2,zero,d001f34 <sss_handle_accept+0x94>
  {
     if((socket=accept(listen_socket,(struct sockaddr*)&incoming_addr,&len))<0)
 d001ed0:	e17ffa04 	addi	r5,fp,-24
 d001ed4:	e1bff904 	addi	r6,fp,-28
 d001ed8:	e13ffe17 	ldw	r4,-8(fp)
 d001edc:	d0236440 	call	d023644 <bsd_accept>
 d001ee0:	e0bff815 	stw	r2,-32(fp)
 d001ee4:	e0bff817 	ldw	r2,-32(fp)
 d001ee8:	1004403a 	cmpge	r2,r2,zero
 d001eec:	1000051e 	bne	r2,zero,d001f04 <sss_handle_accept+0x64>
     {
         alt_NetworkErrorHandler(EXPANDED_DIAGNOSIS_CODE,
 d001ef0:	01003fc4 	movi	r4,255
 d001ef4:	01434174 	movhi	r5,3333
 d001ef8:	296de704 	addi	r5,r5,-18532
 d001efc:	d0009280 	call	d000928 <alt_NetworkErrorHandler>
 d001f00:	00001206 	br	d001f4c <sss_handle_accept+0xac>
                                 "[sss_handle_accept] accept failed");
     }
     else
     {
        (conn)->fd = socket;
 d001f04:	e0bfff17 	ldw	r2,-4(fp)
 d001f08:	e0fff817 	ldw	r3,-32(fp)
 d001f0c:	10c00115 	stw	r3,4(r2)
        sss_send_menu(conn);
 d001f10:	e13fff17 	ldw	r4,-4(fp)
 d001f14:	d001d100 	call	d001d10 <sss_send_menu>
        printf("[sss_handle_accept] accepted connection request from %s\n",
 d001f18:	e13ffb17 	ldw	r4,-20(fp)
 d001f1c:	d023db00 	call	d023db0 <bsd_inet_ntoa>
 d001f20:	100b883a 	mov	r5,r2
 d001f24:	01034174 	movhi	r4,3333
 d001f28:	212df004 	addi	r4,r4,-18496
 d001f2c:	d0029980 	call	d002998 <printf>
 d001f30:	00000606 	br	d001f4c <sss_handle_accept+0xac>
               inet_ntoa(incoming_addr.sin_addr));
     }
  }
  else
  {
    printf("[sss_handle_accept] rejected connection request from %s\n",
 d001f34:	e13ffb17 	ldw	r4,-20(fp)
 d001f38:	d023db00 	call	d023db0 <bsd_inet_ntoa>
 d001f3c:	100b883a 	mov	r5,r2
 d001f40:	01034174 	movhi	r4,3333
 d001f44:	212dff04 	addi	r4,r4,-18436
 d001f48:	d0029980 	call	d002998 <printf>
           inet_ntoa(incoming_addr.sin_addr));
  }

  return;
}
 d001f4c:	e037883a 	mov	sp,fp
 d001f50:	dfc00117 	ldw	ra,4(sp)
 d001f54:	df000017 	ldw	fp,0(sp)
 d001f58:	dec00204 	addi	sp,sp,8
 d001f5c:	f800283a 	ret

0d001f60 <sss_exec_command>:
 * If the user wishes to quit, we set the "close" member of our SSSConn
 * struct, which will be looked at back in sss_handle_receive() when it 
 * comes time to see whether to close the connection or not.
 */
void sss_exec_command(SSSConn* conn)
{
 d001f60:	defe8104 	addi	sp,sp,-1532
 d001f64:	dfc17e15 	stw	ra,1528(sp)
 d001f68:	df017d15 	stw	fp,1524(sp)
 d001f6c:	df017d04 	addi	fp,sp,1524
 d001f70:	e13ffe15 	stw	r4,-8(fp)
   int bytes_to_process = conn->rx_wr_pos - conn->rx_rd_pos;
 d001f74:	e0bffe17 	ldw	r2,-8(fp)
 d001f78:	10817b17 	ldw	r2,1516(r2)
 d001f7c:	1007883a 	mov	r3,r2
 d001f80:	e0bffe17 	ldw	r2,-8(fp)
 d001f84:	10817a17 	ldw	r2,1512(r2)
 d001f88:	1885c83a 	sub	r2,r3,r2
 d001f8c:	e0be8615 	stw	r2,-1512(fp)
   INT8U tx_buf[SSS_TX_BUF_SIZE];
   INT8U *tx_wr_pos = tx_buf;
 d001f90:	e0be8704 	addi	r2,fp,-1508
 d001f94:	e0be8515 	stw	r2,-1516(fp)
    * SSSSimpleSocketServerTask, since the LEDManagementTask does not 
    * have access to the stack of the SSSSimpleSocketServerTask.
    */
   static INT32U SSSCommand;
   
   SSSCommand = CMD_LEDS_BIT_0_TOGGLE;
 d001f98:	00800c04 	movi	r2,48
 d001f9c:	d0a05915 	stw	r2,-32412(gp)

   while(bytes_to_process--)
 d001fa0:	00004506 	br	d0020b8 <sss_exec_command+0x158>
   {
      SSSCommand = toupper(*(conn->rx_rd_pos++));
 d001fa4:	e0bffe17 	ldw	r2,-8(fp)
 d001fa8:	10c17a17 	ldw	r3,1512(r2)
 d001fac:	18800003 	ldbu	r2,0(r3)
 d001fb0:	10803fcc 	andi	r2,r2,255
 d001fb4:	e0be8315 	stw	r2,-1524(fp)
 d001fb8:	18c00044 	addi	r3,r3,1
 d001fbc:	e0bffe17 	ldw	r2,-8(fp)
 d001fc0:	10c17a15 	stw	r3,1512(r2)
 d001fc4:	00834174 	movhi	r2,3333
 d001fc8:	108a2104 	addi	r2,r2,10372
 d001fcc:	10c00017 	ldw	r3,0(r2)
 d001fd0:	e0be8317 	ldw	r2,-1524(fp)
 d001fd4:	1885883a 	add	r2,r3,r2
 d001fd8:	10800003 	ldbu	r2,0(r2)
 d001fdc:	10803fcc 	andi	r2,r2,255
 d001fe0:	1080008c 	andi	r2,r2,2
 d001fe4:	1005003a 	cmpeq	r2,r2,zero
 d001fe8:	1000041e 	bne	r2,zero,d001ffc <sss_exec_command+0x9c>
 d001fec:	e0be8317 	ldw	r2,-1524(fp)
 d001ff0:	10bff804 	addi	r2,r2,-32
 d001ff4:	e0bfff15 	stw	r2,-4(fp)
 d001ff8:	00000206 	br	d002004 <sss_exec_command+0xa4>
 d001ffc:	e0be8317 	ldw	r2,-1524(fp)
 d002000:	e0bfff15 	stw	r2,-4(fp)
 d002004:	e0bfff17 	ldw	r2,-4(fp)
 d002008:	d0a05915 	stw	r2,-32412(gp)
    
      if(SSSCommand >= ' ' && SSSCommand <= '~')
 d00200c:	d0a05917 	ldw	r2,-32412(gp)
 d002010:	10800830 	cmpltui	r2,r2,32
 d002014:	1000281e 	bne	r2,zero,d0020b8 <sss_exec_command+0x158>
 d002018:	d0a05917 	ldw	r2,-32412(gp)
 d00201c:	10801fe8 	cmpgeui	r2,r2,127
 d002020:	1000251e 	bne	r2,zero,d0020b8 <sss_exec_command+0x158>
      {
         tx_wr_pos += sprintf(tx_wr_pos,
 d002024:	e13e8517 	ldw	r4,-1516(fp)
 d002028:	d0a05917 	ldw	r2,-32412(gp)
 d00202c:	11803fcc 	andi	r6,r2,255
 d002030:	3180201c 	xori	r6,r6,128
 d002034:	31bfe004 	addi	r6,r6,-128
 d002038:	01434174 	movhi	r5,3333
 d00203c:	296e0e04 	addi	r5,r5,-18376
 d002040:	d002d340 	call	d002d34 <sprintf>
 d002044:	1007883a 	mov	r3,r2
 d002048:	e0be8517 	ldw	r2,-1516(fp)
 d00204c:	10c5883a 	add	r2,r2,r3
 d002050:	e0be8515 	stw	r2,-1516(fp)
                              "--> Simple Socket Server Command %c.\n",
                              (char)SSSCommand);
         if (SSSCommand == CMD_QUIT)
 d002054:	d0a05917 	ldw	r2,-32412(gp)
 d002058:	10801458 	cmpnei	r2,r2,81
 d00205c:	10000e1e 	bne	r2,zero,d002098 <sss_exec_command+0x138>
         {
            tx_wr_pos += sprintf(tx_wr_pos,"Terminating connection.\n\n\r");
 d002060:	e0be8517 	ldw	r2,-1516(fp)
 d002064:	00c34174 	movhi	r3,3333
 d002068:	18ee1804 	addi	r3,r3,-18336
 d00206c:	1009883a 	mov	r4,r2
 d002070:	180b883a 	mov	r5,r3
 d002074:	018006c4 	movi	r6,27
 d002078:	d0027000 	call	d002700 <memcpy>
 d00207c:	e0be8517 	ldw	r2,-1516(fp)
 d002080:	10800684 	addi	r2,r2,26
 d002084:	e0be8515 	stw	r2,-1516(fp)
            conn->close = 1;
 d002088:	e0fffe17 	ldw	r3,-8(fp)
 d00208c:	00800044 	movi	r2,1
 d002090:	18800215 	stw	r2,8(r3)
 d002094:	00000806 	br	d0020b8 <sss_exec_command+0x158>
         }
         else
         {
            error_code = OSQPost(SSSLEDCommandQ, (void *)SSSCommand);    
 d002098:	d1205a17 	ldw	r4,-32408(gp)
 d00209c:	d0a05917 	ldw	r2,-32412(gp)
 d0020a0:	100b883a 	mov	r5,r2
 d0020a4:	d0126780 	call	d012678 <OSQPost>
 d0020a8:	e0be8405 	stb	r2,-1520(fp)

            alt_SSSErrorHandler(error_code, 0);
 d0020ac:	e13e8403 	ldbu	r4,-1520(fp)
 d0020b0:	000b883a 	mov	r5,zero
 d0020b4:	d000bc00 	call	d000bc0 <alt_SSSErrorHandler>
    */
   static INT32U SSSCommand;
   
   SSSCommand = CMD_LEDS_BIT_0_TOGGLE;

   while(bytes_to_process--)
 d0020b8:	e0be8617 	ldw	r2,-1512(fp)
 d0020bc:	10bfffc4 	addi	r2,r2,-1
 d0020c0:	e0be8615 	stw	r2,-1512(fp)
 d0020c4:	e0be8617 	ldw	r2,-1512(fp)
 d0020c8:	10bfffd8 	cmpnei	r2,r2,-1
 d0020cc:	103fb51e 	bne	r2,zero,d001fa4 <sss_exec_command+0x44>
            alt_SSSErrorHandler(error_code, 0);
         }
      }
   }             

  send(conn->fd, tx_buf, tx_wr_pos - tx_buf, 0);  
 d0020d0:	e0bffe17 	ldw	r2,-8(fp)
 d0020d4:	11000117 	ldw	r4,4(r2)
 d0020d8:	e17e8704 	addi	r5,fp,-1508
 d0020dc:	e0fe8517 	ldw	r3,-1516(fp)
 d0020e0:	e0be8704 	addi	r2,fp,-1508
 d0020e4:	188dc83a 	sub	r6,r3,r2
 d0020e8:	000f883a 	mov	r7,zero
 d0020ec:	d02d70c0 	call	d02d70c <t_send>
  
  return;
}
 d0020f0:	e037883a 	mov	sp,fp
 d0020f4:	dfc00117 	ldw	ra,4(sp)
 d0020f8:	df000017 	ldw	fp,0(sp)
 d0020fc:	dec00204 	addi	sp,sp,8
 d002100:	f800283a 	ret

0d002104 <sss_handle_receive>:
 * sss_exec_command() routine. Aside from these, we must move incoming
 * (un-processed) data to buffer start as appropriate and keep track of 
 * associated pointers.
 */
void sss_handle_receive(SSSConn* conn)
{
 d002104:	defff904 	addi	sp,sp,-28
 d002108:	dfc00615 	stw	ra,24(sp)
 d00210c:	df000515 	stw	fp,20(sp)
 d002110:	df000504 	addi	fp,sp,20
 d002114:	e13ffe15 	stw	r4,-8(fp)
  int data_used = 0, rx_code = 0;
 d002118:	e03ffd15 	stw	zero,-12(fp)
 d00211c:	e03ffc15 	stw	zero,-16(fp)
  INT8U *lf_addr; 
  
  conn->rx_rd_pos = conn->rx_buffer;
 d002120:	e0bffe17 	ldw	r2,-8(fp)
 d002124:	10c00304 	addi	r3,r2,12
 d002128:	e0bffe17 	ldw	r2,-8(fp)
 d00212c:	10c17a15 	stw	r3,1512(r2)
  conn->rx_wr_pos = conn->rx_buffer;
 d002130:	e0bffe17 	ldw	r2,-8(fp)
 d002134:	10c00304 	addi	r3,r2,12
 d002138:	e0bffe17 	ldw	r2,-8(fp)
 d00213c:	10c17b15 	stw	r3,1516(r2)
  
  printf("[sss_handle_receive] processing RX data\n");
 d002140:	01034174 	movhi	r4,3333
 d002144:	212e1f04 	addi	r4,r4,-18308
 d002148:	d002cc00 	call	d002cc0 <puts>
  
  while(conn->state != CLOSE)
 d00214c:	00005706 	br	d0022ac <sss_handle_receive+0x1a8>
  {
    /* Find the Carriage return which marks the end of the header */
    lf_addr = strchr(conn->rx_buffer, '\n');
 d002150:	e0bffe17 	ldw	r2,-8(fp)
 d002154:	10800304 	addi	r2,r2,12
 d002158:	1009883a 	mov	r4,r2
 d00215c:	01400284 	movi	r5,10
 d002160:	d002e080 	call	d002e08 <strchr>
 d002164:	e0bffb15 	stw	r2,-20(fp)
      
    if(lf_addr)
 d002168:	e0bffb17 	ldw	r2,-20(fp)
 d00216c:	1005003a 	cmpeq	r2,r2,zero
 d002170:	1000031e 	bne	r2,zero,d002180 <sss_handle_receive+0x7c>
    {
      /* go off and do whatever the user wanted us to do */
      sss_exec_command(conn);
 d002174:	e13ffe17 	ldw	r4,-8(fp)
 d002178:	d001f600 	call	d001f60 <sss_exec_command>
 d00217c:	00001c06 	br	d0021f0 <sss_handle_receive+0xec>
    }
    /* No newline received? Then ask the socket for data */
    else
    {
      rx_code = recv(conn->fd, conn->rx_wr_pos, 
 d002180:	e0bffe17 	ldw	r2,-8(fp)
 d002184:	11000117 	ldw	r4,4(r2)
 d002188:	e0bffe17 	ldw	r2,-8(fp)
 d00218c:	10817b17 	ldw	r2,1516(r2)
 d002190:	100b883a 	mov	r5,r2
 d002194:	e0bffe17 	ldw	r2,-8(fp)
 d002198:	10800304 	addi	r2,r2,12
 d00219c:	1007883a 	mov	r3,r2
 d0021a0:	e0bffe17 	ldw	r2,-8(fp)
 d0021a4:	10817b17 	ldw	r2,1516(r2)
 d0021a8:	1885c83a 	sub	r2,r3,r2
 d0021ac:	118176c4 	addi	r6,r2,1499
 d0021b0:	000f883a 	mov	r7,zero
 d0021b4:	d02d2a00 	call	d02d2a0 <t_recv>
 d0021b8:	e0bffc15 	stw	r2,-16(fp)
        SSS_RX_BUF_SIZE - (conn->rx_wr_pos - conn->rx_buffer) -1, 0);
          
     if(rx_code > 0)
 d0021bc:	e0bffc17 	ldw	r2,-16(fp)
 d0021c0:	10800050 	cmplti	r2,r2,1
 d0021c4:	10000a1e 	bne	r2,zero,d0021f0 <sss_handle_receive+0xec>
      {
        conn->rx_wr_pos += rx_code;
 d0021c8:	e0bffe17 	ldw	r2,-8(fp)
 d0021cc:	10c17b17 	ldw	r3,1516(r2)
 d0021d0:	e0bffc17 	ldw	r2,-16(fp)
 d0021d4:	1887883a 	add	r3,r3,r2
 d0021d8:	e0bffe17 	ldw	r2,-8(fp)
 d0021dc:	10c17b15 	stw	r3,1516(r2)
        
        /* Zero terminate so we can use string functions */
        *(conn->rx_wr_pos+1) = 0;
 d0021e0:	e0bffe17 	ldw	r2,-8(fp)
 d0021e4:	10817b17 	ldw	r2,1516(r2)
 d0021e8:	10800044 	addi	r2,r2,1
 d0021ec:	10000005 	stb	zero,0(r2)

    /* 
     * When the quit command is received, update our connection state so that
     * we can exit the while() loop and close the connection
     */
    conn->state = conn->close ? CLOSE : READY;
 d0021f0:	e0bffe17 	ldw	r2,-8(fp)
 d0021f4:	10800217 	ldw	r2,8(r2)
 d0021f8:	1005003a 	cmpeq	r2,r2,zero
 d0021fc:	1000031e 	bne	r2,zero,d00220c <sss_handle_receive+0x108>
 d002200:	00800084 	movi	r2,2
 d002204:	e0bfff15 	stw	r2,-4(fp)
 d002208:	00000106 	br	d002210 <sss_handle_receive+0x10c>
 d00220c:	e03fff15 	stw	zero,-4(fp)
 d002210:	e0bffe17 	ldw	r2,-8(fp)
 d002214:	e0ffff17 	ldw	r3,-4(fp)
 d002218:	10c00015 	stw	r3,0(r2)

    /* Manage buffer */
    data_used = conn->rx_rd_pos - conn->rx_buffer;
 d00221c:	e0bffe17 	ldw	r2,-8(fp)
 d002220:	10817a17 	ldw	r2,1512(r2)
 d002224:	1007883a 	mov	r3,r2
 d002228:	e0bffe17 	ldw	r2,-8(fp)
 d00222c:	10800304 	addi	r2,r2,12
 d002230:	1885c83a 	sub	r2,r3,r2
 d002234:	e0bffd15 	stw	r2,-12(fp)
    memmove(conn->rx_buffer, conn->rx_rd_pos, 
 d002238:	e0bffe17 	ldw	r2,-8(fp)
 d00223c:	11000304 	addi	r4,r2,12
 d002240:	e0bffe17 	ldw	r2,-8(fp)
 d002244:	11417a17 	ldw	r5,1512(r2)
 d002248:	e0bffe17 	ldw	r2,-8(fp)
 d00224c:	10817b17 	ldw	r2,1516(r2)
 d002250:	1007883a 	mov	r3,r2
 d002254:	e0bffe17 	ldw	r2,-8(fp)
 d002258:	10817a17 	ldw	r2,1512(r2)
 d00225c:	1885c83a 	sub	r2,r3,r2
 d002260:	100d883a 	mov	r6,r2
 d002264:	d0027a00 	call	d0027a0 <memmove>
       conn->rx_wr_pos - conn->rx_rd_pos);
    conn->rx_rd_pos = conn->rx_buffer;
 d002268:	e0bffe17 	ldw	r2,-8(fp)
 d00226c:	10c00304 	addi	r3,r2,12
 d002270:	e0bffe17 	ldw	r2,-8(fp)
 d002274:	10c17a15 	stw	r3,1512(r2)
    conn->rx_wr_pos -= data_used;
 d002278:	e0bffe17 	ldw	r2,-8(fp)
 d00227c:	10c17b17 	ldw	r3,1516(r2)
 d002280:	e0bffd17 	ldw	r2,-12(fp)
 d002284:	1887c83a 	sub	r3,r3,r2
 d002288:	e0bffe17 	ldw	r2,-8(fp)
 d00228c:	10c17b15 	stw	r3,1516(r2)
    memset(conn->rx_wr_pos, 0, data_used);
 d002290:	e0bffe17 	ldw	r2,-8(fp)
 d002294:	10817b17 	ldw	r2,1516(r2)
 d002298:	e0fffd17 	ldw	r3,-12(fp)
 d00229c:	1009883a 	mov	r4,r2
 d0022a0:	180d883a 	mov	r6,r3
 d0022a4:	000b883a 	mov	r5,zero
 d0022a8:	d0028800 	call	d002880 <memset>
  conn->rx_rd_pos = conn->rx_buffer;
  conn->rx_wr_pos = conn->rx_buffer;
  
  printf("[sss_handle_receive] processing RX data\n");
  
  while(conn->state != CLOSE)
 d0022ac:	e0bffe17 	ldw	r2,-8(fp)
 d0022b0:	10800017 	ldw	r2,0(r2)
 d0022b4:	10800098 	cmpnei	r2,r2,2
 d0022b8:	103fa51e 	bne	r2,zero,d002150 <sss_handle_receive+0x4c>
    conn->rx_rd_pos = conn->rx_buffer;
    conn->rx_wr_pos -= data_used;
    memset(conn->rx_wr_pos, 0, data_used);
  }

  printf("[sss_handle_receive] closing connection\n");
 d0022bc:	01034174 	movhi	r4,3333
 d0022c0:	212e2904 	addi	r4,r4,-18268
 d0022c4:	d002cc00 	call	d002cc0 <puts>
  close(conn->fd);
 d0022c8:	e0bffe17 	ldw	r2,-8(fp)
 d0022cc:	11000117 	ldw	r4,4(r2)
 d0022d0:	d02101c0 	call	d02101c <close>
  sss_reset_connection(conn);
 d0022d4:	e13ffe17 	ldw	r4,-8(fp)
 d0022d8:	d001ca00 	call	d001ca0 <sss_reset_connection>
  
  return;
}
 d0022dc:	e037883a 	mov	sp,fp
 d0022e0:	dfc00117 	ldw	ra,4(sp)
 d0022e4:	df000017 	ldw	fp,0(sp)
 d0022e8:	dec00204 	addi	sp,sp,8
 d0022ec:	f800283a 	ret

0d0022f0 <SSSSimpleSocketServerTask>:
 * (if a connection is active), the sss data socket. When data arrives, 
 * the approrpriate routine is called to either accept/reject a connection 
 * request, or process incoming data.
 */
void SSSSimpleSocketServerTask()
{
 d0022f0:	deffb604 	addi	sp,sp,-296
 d0022f4:	dfc04915 	stw	ra,292(sp)
 d0022f8:	df004815 	stw	fp,288(sp)
 d0022fc:	df004804 	addi	fp,sp,288
   * protocol and address families respectively. However, there is usually only
   * 1 address per protocol family. Thus PF_INET and AF_INET can be interchanged.
   * In the case of NicheStack, only the use of AF_INET is supported.
   * PF_INET is not supported in NicheStack.
   */ 
  if ((fd_listen = socket(AF_INET, SOCK_STREAM, 0)) < 0)
 d002300:	01000084 	movi	r4,2
 d002304:	01400044 	movi	r5,1
 d002308:	000d883a 	mov	r6,zero
 d00230c:	d02c46c0 	call	d02c46c <t_socket>
 d002310:	e0bfba15 	stw	r2,-280(fp)
 d002314:	e0bfba17 	ldw	r2,-280(fp)
 d002318:	1004403a 	cmpge	r2,r2,zero
 d00231c:	1000041e 	bne	r2,zero,d002330 <SSSSimpleSocketServerTask+0x40>
  {
    alt_NetworkErrorHandler(EXPANDED_DIAGNOSIS_CODE,"[sss_task] Socket creation failed");
 d002320:	01003fc4 	movi	r4,255
 d002324:	01434174 	movhi	r5,3333
 d002328:	296e3304 	addi	r5,r5,-18228
 d00232c:	d0009280 	call	d000928 <alt_NetworkErrorHandler>
   * port and incoming address. In this case we're binding to SSS_PORT and to
   * INADDR_ANY address (allowing anyone to connect to us. Bind may fail for 
   * various reasons, but the most common is that some other socket is bound to
   * the port we're requesting. 
   */ 
  addr.sin_family = AF_INET;
 d002330:	00800084 	movi	r2,2
 d002334:	e0bfbb0d 	sth	r2,-276(fp)
  addr.sin_port = htons(SSS_PORT);
 d002338:	00878004 	movi	r2,7680
 d00233c:	e0bfbb8d 	sth	r2,-274(fp)
  addr.sin_addr.s_addr = INADDR_ANY;
 d002340:	e03fbc15 	stw	zero,-272(fp)
  
  if ((bind(fd_listen,(struct sockaddr *)&addr,sizeof(addr))) < 0)
 d002344:	e17fbb04 	addi	r5,fp,-276
 d002348:	e13fba17 	ldw	r4,-280(fp)
 d00234c:	01800404 	movi	r6,16
 d002350:	d02c4fc0 	call	d02c4fc <t_bind>
 d002354:	1004403a 	cmpge	r2,r2,zero
 d002358:	1000041e 	bne	r2,zero,d00236c <SSSSimpleSocketServerTask+0x7c>
  {
    alt_NetworkErrorHandler(EXPANDED_DIAGNOSIS_CODE,"[sss_task] Bind failed");
 d00235c:	01003fc4 	movi	r4,255
 d002360:	01434174 	movhi	r5,3333
 d002364:	296e3c04 	addi	r5,r5,-18192
 d002368:	d0009280 	call	d000928 <alt_NetworkErrorHandler>
   * Sockets primer, continued...
   * The listen socket is a socket which is waiting for incoming connections.
   * This call to listen will block (i.e. not return) until someone tries to 
   * connect to this port.
   */ 
  if ((listen(fd_listen,1)) < 0)
 d00236c:	e13fba17 	ldw	r4,-280(fp)
 d002370:	01400044 	movi	r5,1
 d002374:	d02c6780 	call	d02c678 <t_listen>
 d002378:	1004403a 	cmpge	r2,r2,zero
 d00237c:	1000041e 	bne	r2,zero,d002390 <SSSSimpleSocketServerTask+0xa0>
  {
    alt_NetworkErrorHandler(EXPANDED_DIAGNOSIS_CODE,"[sss_task] Listen failed");
 d002380:	01003fc4 	movi	r4,255
 d002384:	01434174 	movhi	r5,3333
 d002388:	296e4204 	addi	r5,r5,-18168
 d00238c:	d0009280 	call	d000928 <alt_NetworkErrorHandler>
  }

  /* At this point we have successfully created a socket which is listening
   * on SSS_PORT for connection requests from any remote address.
   */
  sss_reset_connection(&conn);
 d002390:	01034174 	movhi	r4,3333
 d002394:	210afe04 	addi	r4,r4,11256
 d002398:	d001ca00 	call	d001ca0 <sss_reset_connection>
  printf("[sss_task] Simple Socket Server listening on port %d\n", SSS_PORT);
 d00239c:	01034174 	movhi	r4,3333
 d0023a0:	212e4904 	addi	r4,r4,-18140
 d0023a4:	01400784 	movi	r5,30
 d0023a8:	d0029980 	call	d002998 <printf>
 d0023ac:	00000006 	br	d0023b0 <SSSSimpleSocketServerTask+0xc0>
     * 
     *   FD_ZERO  - Zero's out the sockets we're interested in
     *   FD_SET   - Adds a socket to those we're interested in
     *   FD_ISSET - Tests whether the chosen socket is set 
     */
    FD_ZERO(&readfds);
 d0023b0:	e03fbf15 	stw	zero,-260(fp)
    FD_SET(fd_listen, &readfds);
 d0023b4:	e17fbf04 	addi	r5,fp,-260
 d0023b8:	e13fba17 	ldw	r4,-280(fp)
 d0023bc:	d031a580 	call	d031a58 <ifd_set>
    max_socket = fd_listen+1;
 d0023c0:	e0bfba17 	ldw	r2,-280(fp)
 d0023c4:	10800044 	addi	r2,r2,1
 d0023c8:	e0bfb915 	stw	r2,-284(fp)

    if (conn.fd != -1)
 d0023cc:	00834174 	movhi	r2,3333
 d0023d0:	108afe04 	addi	r2,r2,11256
 d0023d4:	10800117 	ldw	r2,4(r2)
 d0023d8:	10bfffe0 	cmpeqi	r2,r2,-1
 d0023dc:	10000f1e 	bne	r2,zero,d00241c <SSSSimpleSocketServerTask+0x12c>
    {
      FD_SET(conn.fd, &readfds);
 d0023e0:	00834174 	movhi	r2,3333
 d0023e4:	108afe04 	addi	r2,r2,11256
 d0023e8:	11000117 	ldw	r4,4(r2)
 d0023ec:	e17fbf04 	addi	r5,fp,-260
 d0023f0:	d031a580 	call	d031a58 <ifd_set>
      if (max_socket <= conn.fd)
 d0023f4:	00834174 	movhi	r2,3333
 d0023f8:	108afe04 	addi	r2,r2,11256
 d0023fc:	10c00117 	ldw	r3,4(r2)
 d002400:	e0bfb917 	ldw	r2,-284(fp)
 d002404:	18800516 	blt	r3,r2,d00241c <SSSSimpleSocketServerTask+0x12c>
      {
        max_socket = conn.fd+1;
 d002408:	00834174 	movhi	r2,3333
 d00240c:	108afe04 	addi	r2,r2,11256
 d002410:	10800117 	ldw	r2,4(r2)
 d002414:	10800044 	addi	r2,r2,1
 d002418:	e0bfb915 	stw	r2,-284(fp)
      }
    }

    select(max_socket, &readfds, NULL, NULL, NULL);
 d00241c:	e17fbf04 	addi	r5,fp,-260
 d002420:	d8000015 	stw	zero,0(sp)
 d002424:	e13fb917 	ldw	r4,-284(fp)
 d002428:	000d883a 	mov	r6,zero
 d00242c:	000f883a 	mov	r7,zero
 d002430:	d023f400 	call	d023f40 <bsd_select>
     * is "set" in readfs, then we have an incoming connection request. We'll
     * call a routine to explicitly accept or deny the incoming connection 
     * request (in this example, we accept a single connection and reject any
     * others that come in while the connection is open).
     */
    if (FD_ISSET(fd_listen, &readfds))
 d002434:	e17fbf04 	addi	r5,fp,-260
 d002438:	e13fba17 	ldw	r4,-280(fp)
 d00243c:	d031acc0 	call	d031acc <ifd_isset>
 d002440:	1005003a 	cmpeq	r2,r2,zero
 d002444:	1000051e 	bne	r2,zero,d00245c <SSSSimpleSocketServerTask+0x16c>
    {
      sss_handle_accept(fd_listen, &conn);
 d002448:	e13fba17 	ldw	r4,-280(fp)
 d00244c:	01434174 	movhi	r5,3333
 d002450:	294afe04 	addi	r5,r5,11256
 d002454:	d001ea00 	call	d001ea0 <sss_handle_accept>
 d002458:	003fd506 	br	d0023b0 <SSSSimpleSocketServerTask+0xc0>
     * incoming data for our sss server, and we call our receiver routine
     * to process it.
     */
    else
    {
      if ((conn.fd != -1) && FD_ISSET(conn.fd, &readfds))
 d00245c:	00834174 	movhi	r2,3333
 d002460:	108afe04 	addi	r2,r2,11256
 d002464:	10800117 	ldw	r2,4(r2)
 d002468:	10bfffe0 	cmpeqi	r2,r2,-1
 d00246c:	103fd01e 	bne	r2,zero,d0023b0 <SSSSimpleSocketServerTask+0xc0>
 d002470:	00834174 	movhi	r2,3333
 d002474:	108afe04 	addi	r2,r2,11256
 d002478:	11000117 	ldw	r4,4(r2)
 d00247c:	e17fbf04 	addi	r5,fp,-260
 d002480:	d031acc0 	call	d031acc <ifd_isset>
 d002484:	1005003a 	cmpeq	r2,r2,zero
 d002488:	103fc91e 	bne	r2,zero,d0023b0 <SSSSimpleSocketServerTask+0xc0>
      {
        sss_handle_receive(&conn);
 d00248c:	01034174 	movhi	r4,3333
 d002490:	210afe04 	addi	r4,r4,11256
 d002494:	d0021040 	call	d002104 <sss_handle_receive>
      }
    }
  } /* while(1) */
 d002498:	003fc506 	br	d0023b0 <SSSSimpleSocketServerTask+0xc0>

0d00249c <fprintf>:
 d00249c:	defffc04 	addi	sp,sp,-16
 d0024a0:	dfc00115 	stw	ra,4(sp)
 d0024a4:	d9800215 	stw	r6,8(sp)
 d0024a8:	d9c00315 	stw	r7,12(sp)
 d0024ac:	d8800204 	addi	r2,sp,8
 d0024b0:	100d883a 	mov	r6,r2
 d0024b4:	d8800015 	stw	r2,0(sp)
 d0024b8:	d0054dc0 	call	d0054dc <__vfprintf_internal>
 d0024bc:	dfc00117 	ldw	ra,4(sp)
 d0024c0:	dec00404 	addi	sp,sp,16
 d0024c4:	f800283a 	ret

0d0024c8 <_fprintf_r>:
 d0024c8:	defffd04 	addi	sp,sp,-12
 d0024cc:	2807883a 	mov	r3,r5
 d0024d0:	dfc00115 	stw	ra,4(sp)
 d0024d4:	d9c00215 	stw	r7,8(sp)
 d0024d8:	d8800204 	addi	r2,sp,8
 d0024dc:	300b883a 	mov	r5,r6
 d0024e0:	1809883a 	mov	r4,r3
 d0024e4:	100d883a 	mov	r6,r2
 d0024e8:	d8800015 	stw	r2,0(sp)
 d0024ec:	d0054dc0 	call	d0054dc <__vfprintf_internal>
 d0024f0:	dfc00117 	ldw	ra,4(sp)
 d0024f4:	dec00304 	addi	sp,sp,12
 d0024f8:	f800283a 	ret

0d0024fc <_fwrite_r>:
 d0024fc:	defff604 	addi	sp,sp,-40
 d002500:	dc400615 	stw	r17,24(sp)
 d002504:	39a3383a 	mul	r17,r7,r6
 d002508:	00800044 	movi	r2,1
 d00250c:	dcc00815 	stw	r19,32(sp)
 d002510:	dc800715 	stw	r18,28(sp)
 d002514:	dc000515 	stw	r16,20(sp)
 d002518:	dfc00915 	stw	ra,36(sp)
 d00251c:	3825883a 	mov	r18,r7
 d002520:	3027883a 	mov	r19,r6
 d002524:	2021883a 	mov	r16,r4
 d002528:	d9400015 	stw	r5,0(sp)
 d00252c:	d8800315 	stw	r2,12(sp)
 d002530:	dc400115 	stw	r17,4(sp)
 d002534:	dc400415 	stw	r17,16(sp)
 d002538:	dec00215 	stw	sp,8(sp)
 d00253c:	20000226 	beq	r4,zero,d002548 <_fwrite_r+0x4c>
 d002540:	20800e17 	ldw	r2,56(r4)
 d002544:	10001226 	beq	r2,zero,d002590 <_fwrite_r+0x94>
 d002548:	d9400a17 	ldw	r5,40(sp)
 d00254c:	8009883a 	mov	r4,r16
 d002550:	d9800204 	addi	r6,sp,8
 d002554:	d0079d00 	call	d0079d0 <__sfvwrite_r>
 d002558:	980b883a 	mov	r5,r19
 d00255c:	10000426 	beq	r2,zero,d002570 <_fwrite_r+0x74>
 d002560:	d9000417 	ldw	r4,16(sp)
 d002564:	8909c83a 	sub	r4,r17,r4
 d002568:	d00c7a00 	call	d00c7a0 <__udivsi3>
 d00256c:	1025883a 	mov	r18,r2
 d002570:	9005883a 	mov	r2,r18
 d002574:	dfc00917 	ldw	ra,36(sp)
 d002578:	dcc00817 	ldw	r19,32(sp)
 d00257c:	dc800717 	ldw	r18,28(sp)
 d002580:	dc400617 	ldw	r17,24(sp)
 d002584:	dc000517 	ldw	r16,20(sp)
 d002588:	dec00a04 	addi	sp,sp,40
 d00258c:	f800283a 	ret
 d002590:	d0071ec0 	call	d0071ec <__sinit>
 d002594:	003fec06 	br	d002548 <_fwrite_r+0x4c>

0d002598 <fwrite>:
 d002598:	00834174 	movhi	r2,3333
 d00259c:	108a2204 	addi	r2,r2,10376
 d0025a0:	2017883a 	mov	r11,r4
 d0025a4:	11000017 	ldw	r4,0(r2)
 d0025a8:	defffe04 	addi	sp,sp,-8
 d0025ac:	3013883a 	mov	r9,r6
 d0025b0:	2805883a 	mov	r2,r5
 d0025b4:	d9c00015 	stw	r7,0(sp)
 d0025b8:	580b883a 	mov	r5,r11
 d0025bc:	100d883a 	mov	r6,r2
 d0025c0:	480f883a 	mov	r7,r9
 d0025c4:	dfc00115 	stw	ra,4(sp)
 d0025c8:	d0024fc0 	call	d0024fc <_fwrite_r>
 d0025cc:	dfc00117 	ldw	ra,4(sp)
 d0025d0:	dec00204 	addi	sp,sp,8
 d0025d4:	f800283a 	ret

0d0025d8 <getc>:
 d0025d8:	defffd04 	addi	sp,sp,-12
 d0025dc:	dc400115 	stw	r17,4(sp)
 d0025e0:	04434174 	movhi	r17,3333
 d0025e4:	8c4a2204 	addi	r17,r17,10376
 d0025e8:	88c00017 	ldw	r3,0(r17)
 d0025ec:	dc000015 	stw	r16,0(sp)
 d0025f0:	dfc00215 	stw	ra,8(sp)
 d0025f4:	2021883a 	mov	r16,r4
 d0025f8:	18000326 	beq	r3,zero,d002608 <getc+0x30>
 d0025fc:	18800e17 	ldw	r2,56(r3)
 d002600:	1809883a 	mov	r4,r3
 d002604:	10000e26 	beq	r2,zero,d002640 <getc+0x68>
 d002608:	80800117 	ldw	r2,4(r16)
 d00260c:	800b883a 	mov	r5,r16
 d002610:	10bfffc4 	addi	r2,r2,-1
 d002614:	80800115 	stw	r2,4(r16)
 d002618:	10000f16 	blt	r2,zero,d002658 <getc+0x80>
 d00261c:	80c00017 	ldw	r3,0(r16)
 d002620:	18800003 	ldbu	r2,0(r3)
 d002624:	18c00044 	addi	r3,r3,1
 d002628:	80c00015 	stw	r3,0(r16)
 d00262c:	dfc00217 	ldw	ra,8(sp)
 d002630:	dc400117 	ldw	r17,4(sp)
 d002634:	dc000017 	ldw	r16,0(sp)
 d002638:	dec00304 	addi	sp,sp,12
 d00263c:	f800283a 	ret
 d002640:	d0071ec0 	call	d0071ec <__sinit>
 d002644:	80800117 	ldw	r2,4(r16)
 d002648:	800b883a 	mov	r5,r16
 d00264c:	10bfffc4 	addi	r2,r2,-1
 d002650:	80800115 	stw	r2,4(r16)
 d002654:	103ff10e 	bge	r2,zero,d00261c <getc+0x44>
 d002658:	89000017 	ldw	r4,0(r17)
 d00265c:	dfc00217 	ldw	ra,8(sp)
 d002660:	dc400117 	ldw	r17,4(sp)
 d002664:	dc000017 	ldw	r16,0(sp)
 d002668:	dec00304 	addi	sp,sp,12
 d00266c:	d002cd41 	jmpi	d002cd4 <__srget_r>

0d002670 <_getc_r>:
 d002670:	defffd04 	addi	sp,sp,-12
 d002674:	dc400115 	stw	r17,4(sp)
 d002678:	dc000015 	stw	r16,0(sp)
 d00267c:	dfc00215 	stw	ra,8(sp)
 d002680:	2021883a 	mov	r16,r4
 d002684:	2823883a 	mov	r17,r5
 d002688:	20000226 	beq	r4,zero,d002694 <_getc_r+0x24>
 d00268c:	20800e17 	ldw	r2,56(r4)
 d002690:	10000f26 	beq	r2,zero,d0026d0 <_getc_r+0x60>
 d002694:	88800117 	ldw	r2,4(r17)
 d002698:	8009883a 	mov	r4,r16
 d00269c:	880b883a 	mov	r5,r17
 d0026a0:	10bfffc4 	addi	r2,r2,-1
 d0026a4:	88800115 	stw	r2,4(r17)
 d0026a8:	10001016 	blt	r2,zero,d0026ec <_getc_r+0x7c>
 d0026ac:	88c00017 	ldw	r3,0(r17)
 d0026b0:	18800003 	ldbu	r2,0(r3)
 d0026b4:	18c00044 	addi	r3,r3,1
 d0026b8:	88c00015 	stw	r3,0(r17)
 d0026bc:	dfc00217 	ldw	ra,8(sp)
 d0026c0:	dc400117 	ldw	r17,4(sp)
 d0026c4:	dc000017 	ldw	r16,0(sp)
 d0026c8:	dec00304 	addi	sp,sp,12
 d0026cc:	f800283a 	ret
 d0026d0:	d0071ec0 	call	d0071ec <__sinit>
 d0026d4:	88800117 	ldw	r2,4(r17)
 d0026d8:	8009883a 	mov	r4,r16
 d0026dc:	880b883a 	mov	r5,r17
 d0026e0:	10bfffc4 	addi	r2,r2,-1
 d0026e4:	88800115 	stw	r2,4(r17)
 d0026e8:	103ff00e 	bge	r2,zero,d0026ac <_getc_r+0x3c>
 d0026ec:	dfc00217 	ldw	ra,8(sp)
 d0026f0:	dc400117 	ldw	r17,4(sp)
 d0026f4:	dc000017 	ldw	r16,0(sp)
 d0026f8:	dec00304 	addi	sp,sp,12
 d0026fc:	d002cd41 	jmpi	d002cd4 <__srget_r>

0d002700 <memcpy>:
 d002700:	01c003c4 	movi	r7,15
 d002704:	2007883a 	mov	r3,r4
 d002708:	3980032e 	bgeu	r7,r6,d002718 <memcpy+0x18>
 d00270c:	2904b03a 	or	r2,r5,r4
 d002710:	108000cc 	andi	r2,r2,3
 d002714:	10000926 	beq	r2,zero,d00273c <memcpy+0x3c>
 d002718:	30000626 	beq	r6,zero,d002734 <memcpy+0x34>
 d00271c:	30cd883a 	add	r6,r6,r3
 d002720:	28800003 	ldbu	r2,0(r5)
 d002724:	29400044 	addi	r5,r5,1
 d002728:	18800005 	stb	r2,0(r3)
 d00272c:	18c00044 	addi	r3,r3,1
 d002730:	30fffb1e 	bne	r6,r3,d002720 <memcpy+0x20>
 d002734:	2005883a 	mov	r2,r4
 d002738:	f800283a 	ret
 d00273c:	3811883a 	mov	r8,r7
 d002740:	200f883a 	mov	r7,r4
 d002744:	28c00017 	ldw	r3,0(r5)
 d002748:	31bffc04 	addi	r6,r6,-16
 d00274c:	38c00015 	stw	r3,0(r7)
 d002750:	28800117 	ldw	r2,4(r5)
 d002754:	38800115 	stw	r2,4(r7)
 d002758:	28c00217 	ldw	r3,8(r5)
 d00275c:	38c00215 	stw	r3,8(r7)
 d002760:	28800317 	ldw	r2,12(r5)
 d002764:	29400404 	addi	r5,r5,16
 d002768:	38800315 	stw	r2,12(r7)
 d00276c:	39c00404 	addi	r7,r7,16
 d002770:	41bff436 	bltu	r8,r6,d002744 <memcpy+0x44>
 d002774:	008000c4 	movi	r2,3
 d002778:	1180072e 	bgeu	r2,r6,d002798 <memcpy+0x98>
 d00277c:	1007883a 	mov	r3,r2
 d002780:	28800017 	ldw	r2,0(r5)
 d002784:	31bfff04 	addi	r6,r6,-4
 d002788:	29400104 	addi	r5,r5,4
 d00278c:	38800015 	stw	r2,0(r7)
 d002790:	39c00104 	addi	r7,r7,4
 d002794:	19bffa36 	bltu	r3,r6,d002780 <memcpy+0x80>
 d002798:	3807883a 	mov	r3,r7
 d00279c:	003fde06 	br	d002718 <memcpy+0x18>

0d0027a0 <memmove>:
 d0027a0:	2807883a 	mov	r3,r5
 d0027a4:	2011883a 	mov	r8,r4
 d0027a8:	29000c2e 	bgeu	r5,r4,d0027dc <memmove+0x3c>
 d0027ac:	298f883a 	add	r7,r5,r6
 d0027b0:	21c00a2e 	bgeu	r4,r7,d0027dc <memmove+0x3c>
 d0027b4:	30000726 	beq	r6,zero,d0027d4 <memmove+0x34>
 d0027b8:	2187883a 	add	r3,r4,r6
 d0027bc:	198dc83a 	sub	r6,r3,r6
 d0027c0:	39ffffc4 	addi	r7,r7,-1
 d0027c4:	38800003 	ldbu	r2,0(r7)
 d0027c8:	18ffffc4 	addi	r3,r3,-1
 d0027cc:	18800005 	stb	r2,0(r3)
 d0027d0:	19bffb1e 	bne	r3,r6,d0027c0 <memmove+0x20>
 d0027d4:	2005883a 	mov	r2,r4
 d0027d8:	f800283a 	ret
 d0027dc:	01c003c4 	movi	r7,15
 d0027e0:	39800a36 	bltu	r7,r6,d00280c <memmove+0x6c>
 d0027e4:	303ffb26 	beq	r6,zero,d0027d4 <memmove+0x34>
 d0027e8:	400f883a 	mov	r7,r8
 d0027ec:	320d883a 	add	r6,r6,r8
 d0027f0:	28800003 	ldbu	r2,0(r5)
 d0027f4:	29400044 	addi	r5,r5,1
 d0027f8:	38800005 	stb	r2,0(r7)
 d0027fc:	39c00044 	addi	r7,r7,1
 d002800:	39bffb1e 	bne	r7,r6,d0027f0 <memmove+0x50>
 d002804:	2005883a 	mov	r2,r4
 d002808:	f800283a 	ret
 d00280c:	1904b03a 	or	r2,r3,r4
 d002810:	108000cc 	andi	r2,r2,3
 d002814:	103ff31e 	bne	r2,zero,d0027e4 <memmove+0x44>
 d002818:	3811883a 	mov	r8,r7
 d00281c:	180b883a 	mov	r5,r3
 d002820:	200f883a 	mov	r7,r4
 d002824:	28c00017 	ldw	r3,0(r5)
 d002828:	31bffc04 	addi	r6,r6,-16
 d00282c:	38c00015 	stw	r3,0(r7)
 d002830:	28800117 	ldw	r2,4(r5)
 d002834:	38800115 	stw	r2,4(r7)
 d002838:	28c00217 	ldw	r3,8(r5)
 d00283c:	38c00215 	stw	r3,8(r7)
 d002840:	28800317 	ldw	r2,12(r5)
 d002844:	29400404 	addi	r5,r5,16
 d002848:	38800315 	stw	r2,12(r7)
 d00284c:	39c00404 	addi	r7,r7,16
 d002850:	41bff436 	bltu	r8,r6,d002824 <memmove+0x84>
 d002854:	008000c4 	movi	r2,3
 d002858:	1180072e 	bgeu	r2,r6,d002878 <memmove+0xd8>
 d00285c:	1007883a 	mov	r3,r2
 d002860:	28800017 	ldw	r2,0(r5)
 d002864:	31bfff04 	addi	r6,r6,-4
 d002868:	29400104 	addi	r5,r5,4
 d00286c:	38800015 	stw	r2,0(r7)
 d002870:	39c00104 	addi	r7,r7,4
 d002874:	19bffa36 	bltu	r3,r6,d002860 <memmove+0xc0>
 d002878:	3811883a 	mov	r8,r7
 d00287c:	003fd906 	br	d0027e4 <memmove+0x44>

0d002880 <memset>:
 d002880:	008000c4 	movi	r2,3
 d002884:	29403fcc 	andi	r5,r5,255
 d002888:	2007883a 	mov	r3,r4
 d00288c:	1180022e 	bgeu	r2,r6,d002898 <memset+0x18>
 d002890:	2084703a 	and	r2,r4,r2
 d002894:	10000826 	beq	r2,zero,d0028b8 <memset+0x38>
 d002898:	30000526 	beq	r6,zero,d0028b0 <memset+0x30>
 d00289c:	2805883a 	mov	r2,r5
 d0028a0:	30cd883a 	add	r6,r6,r3
 d0028a4:	18800005 	stb	r2,0(r3)
 d0028a8:	18c00044 	addi	r3,r3,1
 d0028ac:	19bffd1e 	bne	r3,r6,d0028a4 <memset+0x24>
 d0028b0:	2005883a 	mov	r2,r4
 d0028b4:	f800283a 	ret
 d0028b8:	2804923a 	slli	r2,r5,8
 d0028bc:	020003c4 	movi	r8,15
 d0028c0:	200f883a 	mov	r7,r4
 d0028c4:	2884b03a 	or	r2,r5,r2
 d0028c8:	1006943a 	slli	r3,r2,16
 d0028cc:	10c6b03a 	or	r3,r2,r3
 d0028d0:	41800a2e 	bgeu	r8,r6,d0028fc <memset+0x7c>
 d0028d4:	4005883a 	mov	r2,r8
 d0028d8:	31bffc04 	addi	r6,r6,-16
 d0028dc:	38c00015 	stw	r3,0(r7)
 d0028e0:	38c00115 	stw	r3,4(r7)
 d0028e4:	38c00215 	stw	r3,8(r7)
 d0028e8:	38c00315 	stw	r3,12(r7)
 d0028ec:	39c00404 	addi	r7,r7,16
 d0028f0:	11bff936 	bltu	r2,r6,d0028d8 <memset+0x58>
 d0028f4:	008000c4 	movi	r2,3
 d0028f8:	1180052e 	bgeu	r2,r6,d002910 <memset+0x90>
 d0028fc:	31bfff04 	addi	r6,r6,-4
 d002900:	008000c4 	movi	r2,3
 d002904:	38c00015 	stw	r3,0(r7)
 d002908:	39c00104 	addi	r7,r7,4
 d00290c:	11bffb36 	bltu	r2,r6,d0028fc <memset+0x7c>
 d002910:	3807883a 	mov	r3,r7
 d002914:	003fe006 	br	d002898 <memset+0x18>

0d002918 <_perror_r>:
 d002918:	defffe04 	addi	sp,sp,-8
 d00291c:	dc000015 	stw	r16,0(sp)
 d002920:	dfc00115 	stw	ra,4(sp)
 d002924:	2021883a 	mov	r16,r4
 d002928:	28000326 	beq	r5,zero,d002938 <_perror_r+0x20>
 d00292c:	28800007 	ldb	r2,0(r5)
 d002930:	2809883a 	mov	r4,r5
 d002934:	10000c1e 	bne	r2,zero,d002968 <_perror_r+0x50>
 d002938:	81000017 	ldw	r4,0(r16)
 d00293c:	d002ee80 	call	d002ee8 <strerror>
 d002940:	1009883a 	mov	r4,r2
 d002944:	10000226 	beq	r2,zero,d002950 <_perror_r+0x38>
 d002948:	81400317 	ldw	r5,12(r16)
 d00294c:	d0075740 	call	d007574 <fputs>
 d002950:	81400317 	ldw	r5,12(r16)
 d002954:	01000284 	movi	r4,10
 d002958:	dfc00117 	ldw	ra,4(sp)
 d00295c:	dc000017 	ldw	r16,0(sp)
 d002960:	dec00204 	addi	sp,sp,8
 d002964:	d0074441 	jmpi	d007444 <fputc>
 d002968:	81400317 	ldw	r5,12(r16)
 d00296c:	d0075740 	call	d007574 <fputs>
 d002970:	81400317 	ldw	r5,12(r16)
 d002974:	01034174 	movhi	r4,3333
 d002978:	212f0104 	addi	r4,r4,-17404
 d00297c:	d0075740 	call	d007574 <fputs>
 d002980:	003fed06 	br	d002938 <_perror_r+0x20>

0d002984 <perror>:
 d002984:	00834174 	movhi	r2,3333
 d002988:	108a2204 	addi	r2,r2,10376
 d00298c:	200b883a 	mov	r5,r4
 d002990:	11000017 	ldw	r4,0(r2)
 d002994:	d0029181 	jmpi	d002918 <_perror_r>

0d002998 <printf>:
 d002998:	defffb04 	addi	sp,sp,-20
 d00299c:	dfc00115 	stw	ra,4(sp)
 d0029a0:	d9400215 	stw	r5,8(sp)
 d0029a4:	d9800315 	stw	r6,12(sp)
 d0029a8:	d9c00415 	stw	r7,16(sp)
 d0029ac:	00834174 	movhi	r2,3333
 d0029b0:	108a2204 	addi	r2,r2,10376
 d0029b4:	10c00017 	ldw	r3,0(r2)
 d0029b8:	200b883a 	mov	r5,r4
 d0029bc:	d8800204 	addi	r2,sp,8
 d0029c0:	19000217 	ldw	r4,8(r3)
 d0029c4:	100d883a 	mov	r6,r2
 d0029c8:	d8800015 	stw	r2,0(sp)
 d0029cc:	d0054dc0 	call	d0054dc <__vfprintf_internal>
 d0029d0:	dfc00117 	ldw	ra,4(sp)
 d0029d4:	dec00504 	addi	sp,sp,20
 d0029d8:	f800283a 	ret

0d0029dc <_printf_r>:
 d0029dc:	defffc04 	addi	sp,sp,-16
 d0029e0:	dfc00115 	stw	ra,4(sp)
 d0029e4:	d9800215 	stw	r6,8(sp)
 d0029e8:	d9c00315 	stw	r7,12(sp)
 d0029ec:	280d883a 	mov	r6,r5
 d0029f0:	21400217 	ldw	r5,8(r4)
 d0029f4:	d8c00204 	addi	r3,sp,8
 d0029f8:	180f883a 	mov	r7,r3
 d0029fc:	d8c00015 	stw	r3,0(sp)
 d002a00:	d0036300 	call	d003630 <___vfprintf_internal_r>
 d002a04:	dfc00117 	ldw	ra,4(sp)
 d002a08:	dec00404 	addi	sp,sp,16
 d002a0c:	f800283a 	ret

0d002a10 <putc>:
 d002a10:	defffc04 	addi	sp,sp,-16
 d002a14:	dc800215 	stw	r18,8(sp)
 d002a18:	04834174 	movhi	r18,3333
 d002a1c:	948a2204 	addi	r18,r18,10376
 d002a20:	90c00017 	ldw	r3,0(r18)
 d002a24:	dc400115 	stw	r17,4(sp)
 d002a28:	dc000015 	stw	r16,0(sp)
 d002a2c:	dfc00315 	stw	ra,12(sp)
 d002a30:	2023883a 	mov	r17,r4
 d002a34:	2821883a 	mov	r16,r5
 d002a38:	18000226 	beq	r3,zero,d002a44 <putc+0x34>
 d002a3c:	18800e17 	ldw	r2,56(r3)
 d002a40:	10001126 	beq	r2,zero,d002a88 <putc+0x78>
 d002a44:	80800217 	ldw	r2,8(r16)
 d002a48:	10ffffc4 	addi	r3,r2,-1
 d002a4c:	80c00215 	stw	r3,8(r16)
 d002a50:	18001316 	blt	r3,zero,d002aa0 <putc+0x90>
 d002a54:	80800017 	ldw	r2,0(r16)
 d002a58:	14400005 	stb	r17,0(r2)
 d002a5c:	80c00017 	ldw	r3,0(r16)
 d002a60:	18800044 	addi	r2,r3,1
 d002a64:	18c00003 	ldbu	r3,0(r3)
 d002a68:	80800015 	stw	r2,0(r16)
 d002a6c:	1805883a 	mov	r2,r3
 d002a70:	dfc00317 	ldw	ra,12(sp)
 d002a74:	dc800217 	ldw	r18,8(sp)
 d002a78:	dc400117 	ldw	r17,4(sp)
 d002a7c:	dc000017 	ldw	r16,0(sp)
 d002a80:	dec00404 	addi	sp,sp,16
 d002a84:	f800283a 	ret
 d002a88:	1809883a 	mov	r4,r3
 d002a8c:	d0071ec0 	call	d0071ec <__sinit>
 d002a90:	80800217 	ldw	r2,8(r16)
 d002a94:	10ffffc4 	addi	r3,r2,-1
 d002a98:	80c00215 	stw	r3,8(r16)
 d002a9c:	183fed0e 	bge	r3,zero,d002a54 <putc+0x44>
 d002aa0:	80800617 	ldw	r2,24(r16)
 d002aa4:	18800f16 	blt	r3,r2,d002ae4 <putc+0xd4>
 d002aa8:	80800017 	ldw	r2,0(r16)
 d002aac:	14400005 	stb	r17,0(r2)
 d002ab0:	81000017 	ldw	r4,0(r16)
 d002ab4:	00800284 	movi	r2,10
 d002ab8:	20c00003 	ldbu	r3,0(r4)
 d002abc:	18801226 	beq	r3,r2,d002b08 <putc+0xf8>
 d002ac0:	20800044 	addi	r2,r4,1
 d002ac4:	80800015 	stw	r2,0(r16)
 d002ac8:	1805883a 	mov	r2,r3
 d002acc:	dfc00317 	ldw	ra,12(sp)
 d002ad0:	dc800217 	ldw	r18,8(sp)
 d002ad4:	dc400117 	ldw	r17,4(sp)
 d002ad8:	dc000017 	ldw	r16,0(sp)
 d002adc:	dec00404 	addi	sp,sp,16
 d002ae0:	f800283a 	ret
 d002ae4:	91000017 	ldw	r4,0(r18)
 d002ae8:	880b883a 	mov	r5,r17
 d002aec:	800d883a 	mov	r6,r16
 d002af0:	dfc00317 	ldw	ra,12(sp)
 d002af4:	dc800217 	ldw	r18,8(sp)
 d002af8:	dc400117 	ldw	r17,4(sp)
 d002afc:	dc000017 	ldw	r16,0(sp)
 d002b00:	dec00404 	addi	sp,sp,16
 d002b04:	d0055001 	jmpi	d005500 <__swbuf_r>
 d002b08:	91000017 	ldw	r4,0(r18)
 d002b0c:	180b883a 	mov	r5,r3
 d002b10:	003ff606 	br	d002aec <putc+0xdc>

0d002b14 <_putc_r>:
 d002b14:	defffc04 	addi	sp,sp,-16
 d002b18:	dc400215 	stw	r17,8(sp)
 d002b1c:	dc000115 	stw	r16,4(sp)
 d002b20:	dfc00315 	stw	ra,12(sp)
 d002b24:	2021883a 	mov	r16,r4
 d002b28:	2823883a 	mov	r17,r5
 d002b2c:	20000226 	beq	r4,zero,d002b38 <_putc_r+0x24>
 d002b30:	20800e17 	ldw	r2,56(r4)
 d002b34:	10001026 	beq	r2,zero,d002b78 <_putc_r+0x64>
 d002b38:	30800217 	ldw	r2,8(r6)
 d002b3c:	10ffffc4 	addi	r3,r2,-1
 d002b40:	30c00215 	stw	r3,8(r6)
 d002b44:	18001316 	blt	r3,zero,d002b94 <_putc_r+0x80>
 d002b48:	30800017 	ldw	r2,0(r6)
 d002b4c:	14400005 	stb	r17,0(r2)
 d002b50:	30c00017 	ldw	r3,0(r6)
 d002b54:	18800044 	addi	r2,r3,1
 d002b58:	18c00003 	ldbu	r3,0(r3)
 d002b5c:	30800015 	stw	r2,0(r6)
 d002b60:	1805883a 	mov	r2,r3
 d002b64:	dfc00317 	ldw	ra,12(sp)
 d002b68:	dc400217 	ldw	r17,8(sp)
 d002b6c:	dc000117 	ldw	r16,4(sp)
 d002b70:	dec00404 	addi	sp,sp,16
 d002b74:	f800283a 	ret
 d002b78:	d9800015 	stw	r6,0(sp)
 d002b7c:	d0071ec0 	call	d0071ec <__sinit>
 d002b80:	d9800017 	ldw	r6,0(sp)
 d002b84:	30800217 	ldw	r2,8(r6)
 d002b88:	10ffffc4 	addi	r3,r2,-1
 d002b8c:	30c00215 	stw	r3,8(r6)
 d002b90:	183fed0e 	bge	r3,zero,d002b48 <_putc_r+0x34>
 d002b94:	30800617 	ldw	r2,24(r6)
 d002b98:	18800e16 	blt	r3,r2,d002bd4 <_putc_r+0xc0>
 d002b9c:	30800017 	ldw	r2,0(r6)
 d002ba0:	14400005 	stb	r17,0(r2)
 d002ba4:	31000017 	ldw	r4,0(r6)
 d002ba8:	00800284 	movi	r2,10
 d002bac:	20c00003 	ldbu	r3,0(r4)
 d002bb0:	18800f26 	beq	r3,r2,d002bf0 <_putc_r+0xdc>
 d002bb4:	20800044 	addi	r2,r4,1
 d002bb8:	30800015 	stw	r2,0(r6)
 d002bbc:	1805883a 	mov	r2,r3
 d002bc0:	dfc00317 	ldw	ra,12(sp)
 d002bc4:	dc400217 	ldw	r17,8(sp)
 d002bc8:	dc000117 	ldw	r16,4(sp)
 d002bcc:	dec00404 	addi	sp,sp,16
 d002bd0:	f800283a 	ret
 d002bd4:	8009883a 	mov	r4,r16
 d002bd8:	880b883a 	mov	r5,r17
 d002bdc:	dfc00317 	ldw	ra,12(sp)
 d002be0:	dc400217 	ldw	r17,8(sp)
 d002be4:	dc000117 	ldw	r16,4(sp)
 d002be8:	dec00404 	addi	sp,sp,16
 d002bec:	d0055001 	jmpi	d005500 <__swbuf_r>
 d002bf0:	8009883a 	mov	r4,r16
 d002bf4:	180b883a 	mov	r5,r3
 d002bf8:	003ff806 	br	d002bdc <_putc_r+0xc8>

0d002bfc <putchar>:
 d002bfc:	00834174 	movhi	r2,3333
 d002c00:	108a2204 	addi	r2,r2,10376
 d002c04:	11800017 	ldw	r6,0(r2)
 d002c08:	200b883a 	mov	r5,r4
 d002c0c:	3009883a 	mov	r4,r6
 d002c10:	31800217 	ldw	r6,8(r6)
 d002c14:	d002b141 	jmpi	d002b14 <_putc_r>

0d002c18 <_putchar_r>:
 d002c18:	21800217 	ldw	r6,8(r4)
 d002c1c:	d002b141 	jmpi	d002b14 <_putc_r>

0d002c20 <_puts_r>:
 d002c20:	defff604 	addi	sp,sp,-40
 d002c24:	dc400715 	stw	r17,28(sp)
 d002c28:	2023883a 	mov	r17,r4
 d002c2c:	2809883a 	mov	r4,r5
 d002c30:	dfc00915 	stw	ra,36(sp)
 d002c34:	dcc00815 	stw	r19,32(sp)
 d002c38:	2827883a 	mov	r19,r5
 d002c3c:	d00355c0 	call	d00355c <strlen>
 d002c40:	89400217 	ldw	r5,8(r17)
 d002c44:	00c34174 	movhi	r3,3333
 d002c48:	18ef0204 	addi	r3,r3,-17400
 d002c4c:	01c00044 	movi	r7,1
 d002c50:	12000044 	addi	r8,r2,1
 d002c54:	d8c00515 	stw	r3,20(sp)
 d002c58:	d9c00615 	stw	r7,24(sp)
 d002c5c:	d8c00304 	addi	r3,sp,12
 d002c60:	01c00084 	movi	r7,2
 d002c64:	8809883a 	mov	r4,r17
 d002c68:	d80d883a 	mov	r6,sp
 d002c6c:	d8c00015 	stw	r3,0(sp)
 d002c70:	dcc00315 	stw	r19,12(sp)
 d002c74:	da000215 	stw	r8,8(sp)
 d002c78:	d9c00115 	stw	r7,4(sp)
 d002c7c:	d8800415 	stw	r2,16(sp)
 d002c80:	d0079d00 	call	d0079d0 <__sfvwrite_r>
 d002c84:	00ffffc4 	movi	r3,-1
 d002c88:	10000626 	beq	r2,zero,d002ca4 <_puts_r+0x84>
 d002c8c:	1805883a 	mov	r2,r3
 d002c90:	dfc00917 	ldw	ra,36(sp)
 d002c94:	dcc00817 	ldw	r19,32(sp)
 d002c98:	dc400717 	ldw	r17,28(sp)
 d002c9c:	dec00a04 	addi	sp,sp,40
 d002ca0:	f800283a 	ret
 d002ca4:	00c00284 	movi	r3,10
 d002ca8:	1805883a 	mov	r2,r3
 d002cac:	dfc00917 	ldw	ra,36(sp)
 d002cb0:	dcc00817 	ldw	r19,32(sp)
 d002cb4:	dc400717 	ldw	r17,28(sp)
 d002cb8:	dec00a04 	addi	sp,sp,40
 d002cbc:	f800283a 	ret

0d002cc0 <puts>:
 d002cc0:	00834174 	movhi	r2,3333
 d002cc4:	108a2204 	addi	r2,r2,10376
 d002cc8:	200b883a 	mov	r5,r4
 d002ccc:	11000017 	ldw	r4,0(r2)
 d002cd0:	d002c201 	jmpi	d002c20 <_puts_r>

0d002cd4 <__srget_r>:
 d002cd4:	defffe04 	addi	sp,sp,-8
 d002cd8:	dc000015 	stw	r16,0(sp)
 d002cdc:	dfc00115 	stw	ra,4(sp)
 d002ce0:	2821883a 	mov	r16,r5
 d002ce4:	d00a0500 	call	d00a050 <__srefill_r>
 d002ce8:	013fffc4 	movi	r4,-1
 d002cec:	1000071e 	bne	r2,zero,d002d0c <__srget_r+0x38>
 d002cf0:	80800117 	ldw	r2,4(r16)
 d002cf4:	81000017 	ldw	r4,0(r16)
 d002cf8:	10bfffc4 	addi	r2,r2,-1
 d002cfc:	20c00044 	addi	r3,r4,1
 d002d00:	80800115 	stw	r2,4(r16)
 d002d04:	21000003 	ldbu	r4,0(r4)
 d002d08:	80c00015 	stw	r3,0(r16)
 d002d0c:	2005883a 	mov	r2,r4
 d002d10:	dfc00117 	ldw	ra,4(sp)
 d002d14:	dc000017 	ldw	r16,0(sp)
 d002d18:	dec00204 	addi	sp,sp,8
 d002d1c:	f800283a 	ret

0d002d20 <__srget>:
 d002d20:	00834174 	movhi	r2,3333
 d002d24:	108a2204 	addi	r2,r2,10376
 d002d28:	200b883a 	mov	r5,r4
 d002d2c:	11000017 	ldw	r4,0(r2)
 d002d30:	d002cd41 	jmpi	d002cd4 <__srget_r>

0d002d34 <sprintf>:
 d002d34:	deffe504 	addi	sp,sp,-108
 d002d38:	2013883a 	mov	r9,r4
 d002d3c:	dfc01815 	stw	ra,96(sp)
 d002d40:	d9801915 	stw	r6,100(sp)
 d002d44:	d9c01a15 	stw	r7,104(sp)
 d002d48:	d8801904 	addi	r2,sp,100
 d002d4c:	d8800015 	stw	r2,0(sp)
 d002d50:	00834174 	movhi	r2,3333
 d002d54:	108a2204 	addi	r2,r2,10376
 d002d58:	11000017 	ldw	r4,0(r2)
 d002d5c:	d9c00017 	ldw	r7,0(sp)
 d002d60:	00808204 	movi	r2,520
 d002d64:	00e00034 	movhi	r3,32768
 d002d68:	18ffffc4 	addi	r3,r3,-1
 d002d6c:	280d883a 	mov	r6,r5
 d002d70:	d880040d 	sth	r2,16(sp)
 d002d74:	d9400104 	addi	r5,sp,4
 d002d78:	00bfffc4 	movi	r2,-1
 d002d7c:	d8c00615 	stw	r3,24(sp)
 d002d80:	d8c00315 	stw	r3,12(sp)
 d002d84:	da400515 	stw	r9,20(sp)
 d002d88:	d880048d 	sth	r2,18(sp)
 d002d8c:	da400115 	stw	r9,4(sp)
 d002d90:	d0036300 	call	d003630 <___vfprintf_internal_r>
 d002d94:	d8c00117 	ldw	r3,4(sp)
 d002d98:	18000005 	stb	zero,0(r3)
 d002d9c:	dfc01817 	ldw	ra,96(sp)
 d002da0:	dec01b04 	addi	sp,sp,108
 d002da4:	f800283a 	ret

0d002da8 <_sprintf_r>:
 d002da8:	deffe604 	addi	sp,sp,-104
 d002dac:	2813883a 	mov	r9,r5
 d002db0:	dfc01815 	stw	ra,96(sp)
 d002db4:	d9c01915 	stw	r7,100(sp)
 d002db8:	d8801904 	addi	r2,sp,100
 d002dbc:	d8800015 	stw	r2,0(sp)
 d002dc0:	100f883a 	mov	r7,r2
 d002dc4:	00808204 	movi	r2,520
 d002dc8:	00e00034 	movhi	r3,32768
 d002dcc:	18ffffc4 	addi	r3,r3,-1
 d002dd0:	d880040d 	sth	r2,16(sp)
 d002dd4:	d9400104 	addi	r5,sp,4
 d002dd8:	00bfffc4 	movi	r2,-1
 d002ddc:	d8c00615 	stw	r3,24(sp)
 d002de0:	d8c00315 	stw	r3,12(sp)
 d002de4:	da400515 	stw	r9,20(sp)
 d002de8:	d880048d 	sth	r2,18(sp)
 d002dec:	da400115 	stw	r9,4(sp)
 d002df0:	d0036300 	call	d003630 <___vfprintf_internal_r>
 d002df4:	d8c00117 	ldw	r3,4(sp)
 d002df8:	18000005 	stb	zero,0(r3)
 d002dfc:	dfc01817 	ldw	ra,96(sp)
 d002e00:	dec01a04 	addi	sp,sp,104
 d002e04:	f800283a 	ret

0d002e08 <strchr>:
 d002e08:	208000cc 	andi	r2,r4,3
 d002e0c:	2007883a 	mov	r3,r4
 d002e10:	1000311e 	bne	r2,zero,d002ed8 <strchr+0xd0>
 d002e14:	29c03fcc 	andi	r7,r5,255
 d002e18:	0015883a 	mov	r10,zero
 d002e1c:	0007883a 	mov	r3,zero
 d002e20:	01400104 	movi	r5,4
 d002e24:	5004923a 	slli	r2,r10,8
 d002e28:	18c00044 	addi	r3,r3,1
 d002e2c:	3894b03a 	or	r10,r7,r2
 d002e30:	197ffc1e 	bne	r3,r5,d002e24 <strchr+0x1c>
 d002e34:	200d883a 	mov	r6,r4
 d002e38:	21000017 	ldw	r4,0(r4)
 d002e3c:	017fbff4 	movhi	r5,65279
 d002e40:	297fbfc4 	addi	r5,r5,-257
 d002e44:	02202074 	movhi	r8,32897
 d002e48:	42202004 	addi	r8,r8,-32640
 d002e4c:	2145883a 	add	r2,r4,r5
 d002e50:	1204703a 	and	r2,r2,r8
 d002e54:	0106303a 	nor	r3,zero,r4
 d002e58:	10c4703a 	and	r2,r2,r3
 d002e5c:	1000151e 	bne	r2,zero,d002eb4 <strchr+0xac>
 d002e60:	2284f03a 	xor	r2,r4,r10
 d002e64:	1147883a 	add	r3,r2,r5
 d002e68:	1a06703a 	and	r3,r3,r8
 d002e6c:	0084303a 	nor	r2,zero,r2
 d002e70:	10c4703a 	and	r2,r2,r3
 d002e74:	10000f1e 	bne	r2,zero,d002eb4 <strchr+0xac>
 d002e78:	2813883a 	mov	r9,r5
 d002e7c:	00000106 	br	d002e84 <strchr+0x7c>
 d002e80:	18000c1e 	bne	r3,zero,d002eb4 <strchr+0xac>
 d002e84:	31800104 	addi	r6,r6,4
 d002e88:	30800017 	ldw	r2,0(r6)
 d002e8c:	1286f03a 	xor	r3,r2,r10
 d002e90:	124b883a 	add	r5,r2,r9
 d002e94:	1a49883a 	add	r4,r3,r9
 d002e98:	2a0a703a 	and	r5,r5,r8
 d002e9c:	0084303a 	nor	r2,zero,r2
 d002ea0:	2208703a 	and	r4,r4,r8
 d002ea4:	00c6303a 	nor	r3,zero,r3
 d002ea8:	1144703a 	and	r2,r2,r5
 d002eac:	1906703a 	and	r3,r3,r4
 d002eb0:	103ff326 	beq	r2,zero,d002e80 <strchr+0x78>
 d002eb4:	3007883a 	mov	r3,r6
 d002eb8:	00000206 	br	d002ec4 <strchr+0xbc>
 d002ebc:	38800426 	beq	r7,r2,d002ed0 <strchr+0xc8>
 d002ec0:	18c00044 	addi	r3,r3,1
 d002ec4:	18800003 	ldbu	r2,0(r3)
 d002ec8:	103ffc1e 	bne	r2,zero,d002ebc <strchr+0xb4>
 d002ecc:	3800041e 	bne	r7,zero,d002ee0 <strchr+0xd8>
 d002ed0:	1805883a 	mov	r2,r3
 d002ed4:	f800283a 	ret
 d002ed8:	29c03fcc 	andi	r7,r5,255
 d002edc:	003ff906 	br	d002ec4 <strchr+0xbc>
 d002ee0:	0005883a 	mov	r2,zero
 d002ee4:	f800283a 	ret

0d002ee8 <strerror>:
 d002ee8:	deffff04 	addi	sp,sp,-4
 d002eec:	00802184 	movi	r2,134
 d002ef0:	dfc00015 	stw	ra,0(sp)
 d002ef4:	200b883a 	mov	r5,r4
 d002ef8:	11008e36 	bltu	r2,r4,d003134 <strerror+0x24c>
 d002efc:	2105883a 	add	r2,r4,r4
 d002f00:	1085883a 	add	r2,r2,r2
 d002f04:	00c34034 	movhi	r3,3328
 d002f08:	18cbc604 	addi	r3,r3,12056
 d002f0c:	10c5883a 	add	r2,r2,r3
 d002f10:	11000017 	ldw	r4,0(r2)
 d002f14:	2000683a 	jmp	r4
 d002f18:	0d003134 	orhi	r20,at,196
 d002f1c:	0d00316c 	andhi	r20,at,197
 d002f20:	0d003178 	rdprs	r20,at,197
 d002f24:	0d003184 	addi	r20,at,198
 d002f28:	0d003190 	cmplti	r20,at,198
 d002f2c:	0d00319c 	xori	r20,at,198
 d002f30:	0d0031a8 	cmpgeui	r20,at,198
 d002f34:	0d0031b4 	orhi	r20,at,198
 d002f38:	0d0031c0 	call	d0031c <OSCtxSw_SWITCH_PC+0xd002dc>
 d002f3c:	0d0031cc 	andi	r20,at,199
 d002f40:	0d0031d8 	cmpnei	r20,at,199
 d002f44:	0d0031e4 	muli	r20,at,199
 d002f48:	0d0031f0 	cmpltui	r20,at,199
 d002f4c:	0d0031fc 	xorhi	r20,at,199
 d002f50:	0d003208 	cmpgei	r20,at,200
 d002f54:	0d003214 	ori	r20,at,200
 d002f58:	0d003220 	cmpeqi	r20,at,200
 d002f5c:	0d00322c 	andhi	r20,at,200
 d002f60:	0d003238 	rdprs	r20,at,200
 d002f64:	0d003244 	addi	r20,at,201
 d002f68:	0d003250 	cmplti	r20,at,201
 d002f6c:	0d00325c 	xori	r20,at,201
 d002f70:	0d003268 	cmpgeui	r20,at,201
 d002f74:	0d003274 	orhi	r20,at,201
 d002f78:	0d003280 	call	d00328 <OSCtxSw_SWITCH_PC+0xd002e8>
 d002f7c:	0d00328c 	andi	r20,at,202
 d002f80:	0d003298 	cmpnei	r20,at,202
 d002f84:	0d0032a4 	muli	r20,at,202
 d002f88:	0d0032b0 	cmpltui	r20,at,202
 d002f8c:	0d0032bc 	xorhi	r20,at,202
 d002f90:	0d0032c8 	cmpgei	r20,at,203
 d002f94:	0d0032d4 	ori	r20,at,203
 d002f98:	0d0032e0 	cmpeqi	r20,at,203
 d002f9c:	0d0032ec 	andhi	r20,at,203
 d002fa0:	0d0032f8 	rdprs	r20,at,203
 d002fa4:	0d003304 	addi	r20,at,204
 d002fa8:	0d003310 	cmplti	r20,at,204
 d002fac:	0d003134 	orhi	r20,at,196
 d002fb0:	0d003134 	orhi	r20,at,196
 d002fb4:	0d003134 	orhi	r20,at,196
 d002fb8:	0d003134 	orhi	r20,at,196
 d002fbc:	0d003134 	orhi	r20,at,196
 d002fc0:	0d003134 	orhi	r20,at,196
 d002fc4:	0d003134 	orhi	r20,at,196
 d002fc8:	0d003134 	orhi	r20,at,196
 d002fcc:	0d00331c 	xori	r20,at,204
 d002fd0:	0d003328 	cmpgeui	r20,at,204
 d002fd4:	0d003134 	orhi	r20,at,196
 d002fd8:	0d003134 	orhi	r20,at,196
 d002fdc:	0d003134 	orhi	r20,at,196
 d002fe0:	0d003134 	orhi	r20,at,196
 d002fe4:	0d003134 	orhi	r20,at,196
 d002fe8:	0d003134 	orhi	r20,at,196
 d002fec:	0d003134 	orhi	r20,at,196
 d002ff0:	0d003134 	orhi	r20,at,196
 d002ff4:	0d003134 	orhi	r20,at,196
 d002ff8:	0d003134 	orhi	r20,at,196
 d002ffc:	0d003134 	orhi	r20,at,196
 d003000:	0d003134 	orhi	r20,at,196
 d003004:	0d003134 	orhi	r20,at,196
 d003008:	0d003334 	orhi	r20,at,204
 d00300c:	0d003134 	orhi	r20,at,196
 d003010:	0d003340 	call	d00334 <OSCtxSw_SWITCH_PC+0xd002f4>
 d003014:	0d00334c 	andi	r20,at,205
 d003018:	0d003358 	cmpnei	r20,at,205
 d00301c:	0d003364 	muli	r20,at,205
 d003020:	0d003370 	cmpltui	r20,at,205
 d003024:	0d00337c 	xorhi	r20,at,205
 d003028:	0d003388 	cmpgei	r20,at,206
 d00302c:	0d003394 	ori	r20,at,206
 d003030:	0d0033a0 	cmpeqi	r20,at,206
 d003034:	0d0033ac 	andhi	r20,at,206
 d003038:	0d003134 	orhi	r20,at,196
 d00303c:	0d003134 	orhi	r20,at,196
 d003040:	0d0033b8 	rdprs	r20,at,206
 d003044:	0d003134 	orhi	r20,at,196
 d003048:	0d003134 	orhi	r20,at,196
 d00304c:	0d0033c4 	addi	r20,at,207
 d003050:	0d003134 	orhi	r20,at,196
 d003054:	0d003134 	orhi	r20,at,196
 d003058:	0d003134 	orhi	r20,at,196
 d00305c:	0d003134 	orhi	r20,at,196
 d003060:	0d003134 	orhi	r20,at,196
 d003064:	0d0033d0 	cmplti	r20,at,207
 d003068:	0d0033dc 	xori	r20,at,207
 d00306c:	0d0033e8 	cmpgeui	r20,at,207
 d003070:	0d0033f4 	orhi	r20,at,207
 d003074:	0d003400 	call	d00340 <OSCtxSw_SWITCH_PC+0xd00300>
 d003078:	0d00340c 	andi	r20,at,208
 d00307c:	0d003418 	cmpnei	r20,at,208
 d003080:	0d003424 	muli	r20,at,208
 d003084:	0d003430 	cmpltui	r20,at,208
 d003088:	0d00343c 	xorhi	r20,at,208
 d00308c:	0d003134 	orhi	r20,at,196
 d003090:	0d003134 	orhi	r20,at,196
 d003094:	0d003448 	cmpgei	r20,at,209
 d003098:	0d003134 	orhi	r20,at,196
 d00309c:	0d003134 	orhi	r20,at,196
 d0030a0:	0d003134 	orhi	r20,at,196
 d0030a4:	0d003134 	orhi	r20,at,196
 d0030a8:	0d003134 	orhi	r20,at,196
 d0030ac:	0d003134 	orhi	r20,at,196
 d0030b0:	0d003134 	orhi	r20,at,196
 d0030b4:	0d003134 	orhi	r20,at,196
 d0030b8:	0d003134 	orhi	r20,at,196
 d0030bc:	0d003454 	ori	r20,at,209
 d0030c0:	0d003460 	cmpeqi	r20,at,209
 d0030c4:	0d00346c 	andhi	r20,at,209
 d0030c8:	0d003478 	rdprs	r20,at,209
 d0030cc:	0d003484 	addi	r20,at,210
 d0030d0:	0d003490 	cmplti	r20,at,210
 d0030d4:	0d00349c 	xori	r20,at,210
 d0030d8:	0d0034a8 	cmpgeui	r20,at,210
 d0030dc:	0d0034b4 	orhi	r20,at,210
 d0030e0:	0d0034c0 	call	d0034c <OSCtxSw_SWITCH_PC+0xd0030c>
 d0030e4:	0d0034cc 	andi	r20,at,211
 d0030e8:	0d0034d8 	cmpnei	r20,at,211
 d0030ec:	0d0034e4 	muli	r20,at,211
 d0030f0:	0d0034f0 	cmpltui	r20,at,211
 d0030f4:	0d0034fc 	xorhi	r20,at,211
 d0030f8:	0d003508 	cmpgei	r20,at,212
 d0030fc:	0d003514 	ori	r20,at,212
 d003100:	0d003520 	cmpeqi	r20,at,212
 d003104:	0d00352c 	andhi	r20,at,212
 d003108:	0d003538 	rdprs	r20,at,212
 d00310c:	0d003134 	orhi	r20,at,196
 d003110:	0d003134 	orhi	r20,at,196
 d003114:	0d003544 	addi	r20,at,213
 d003118:	0d003550 	cmplti	r20,at,213
 d00311c:	0d003134 	orhi	r20,at,196
 d003120:	0d003134 	orhi	r20,at,196
 d003124:	0d003134 	orhi	r20,at,196
 d003128:	0d003134 	orhi	r20,at,196
 d00312c:	0d003134 	orhi	r20,at,196
 d003130:	0d003160 	cmpeqi	r20,at,197
 d003134:	2809883a 	mov	r4,r5
 d003138:	d0035d00 	call	d0035d0 <_user_strerror>
 d00313c:	10000326 	beq	r2,zero,d00314c <strerror+0x264>
 d003140:	dfc00017 	ldw	ra,0(sp)
 d003144:	dec00104 	addi	sp,sp,4
 d003148:	f800283a 	ret
 d00314c:	00834174 	movhi	r2,3333
 d003150:	10b0fb04 	addi	r2,r2,-15380
 d003154:	dfc00017 	ldw	ra,0(sp)
 d003158:	dec00104 	addi	sp,sp,4
 d00315c:	f800283a 	ret
 d003160:	00834174 	movhi	r2,3333
 d003164:	10afbe04 	addi	r2,r2,-16648
 d003168:	003ff506 	br	d003140 <strerror+0x258>
 d00316c:	00834174 	movhi	r2,3333
 d003170:	10af0e04 	addi	r2,r2,-17352
 d003174:	003ff206 	br	d003140 <strerror+0x258>
 d003178:	00834174 	movhi	r2,3333
 d00317c:	10af1104 	addi	r2,r2,-17340
 d003180:	003fef06 	br	d003140 <strerror+0x258>
 d003184:	00834174 	movhi	r2,3333
 d003188:	10af1804 	addi	r2,r2,-17312
 d00318c:	003fec06 	br	d003140 <strerror+0x258>
 d003190:	00834174 	movhi	r2,3333
 d003194:	10af1c04 	addi	r2,r2,-17296
 d003198:	003fe906 	br	d003140 <strerror+0x258>
 d00319c:	00834174 	movhi	r2,3333
 d0031a0:	10af2204 	addi	r2,r2,-17272
 d0031a4:	003fe606 	br	d003140 <strerror+0x258>
 d0031a8:	00834174 	movhi	r2,3333
 d0031ac:	10af2504 	addi	r2,r2,-17260
 d0031b0:	003fe306 	br	d003140 <strerror+0x258>
 d0031b4:	00834174 	movhi	r2,3333
 d0031b8:	10af2c04 	addi	r2,r2,-17232
 d0031bc:	003fe006 	br	d003140 <strerror+0x258>
 d0031c0:	00834174 	movhi	r2,3333
 d0031c4:	10af3104 	addi	r2,r2,-17212
 d0031c8:	003fdd06 	br	d003140 <strerror+0x258>
 d0031cc:	00834174 	movhi	r2,3333
 d0031d0:	10af3d04 	addi	r2,r2,-17164
 d0031d4:	003fda06 	br	d003140 <strerror+0x258>
 d0031d8:	00834174 	movhi	r2,3333
 d0031dc:	10af4104 	addi	r2,r2,-17148
 d0031e0:	003fd706 	br	d003140 <strerror+0x258>
 d0031e4:	00834174 	movhi	r2,3333
 d0031e8:	10af4c04 	addi	r2,r2,-17104
 d0031ec:	003fd406 	br	d003140 <strerror+0x258>
 d0031f0:	00834174 	movhi	r2,3333
 d0031f4:	10af5104 	addi	r2,r2,-17084
 d0031f8:	003fd106 	br	d003140 <strerror+0x258>
 d0031fc:	00834174 	movhi	r2,3333
 d003200:	10af5604 	addi	r2,r2,-17064
 d003204:	003fce06 	br	d003140 <strerror+0x258>
 d003208:	00834174 	movhi	r2,3333
 d00320c:	10af5b04 	addi	r2,r2,-17044
 d003210:	003fcb06 	br	d003140 <strerror+0x258>
 d003214:	00834174 	movhi	r2,3333
 d003218:	10af5e04 	addi	r2,r2,-17032
 d00321c:	003fc806 	br	d003140 <strerror+0x258>
 d003220:	00834174 	movhi	r2,3333
 d003224:	10af6404 	addi	r2,r2,-17008
 d003228:	003fc506 	br	d003140 <strerror+0x258>
 d00322c:	00834174 	movhi	r2,3333
 d003230:	10af6a04 	addi	r2,r2,-16984
 d003234:	003fc206 	br	d003140 <strerror+0x258>
 d003238:	00834174 	movhi	r2,3333
 d00323c:	10af6d04 	addi	r2,r2,-16972
 d003240:	003fbf06 	br	d003140 <strerror+0x258>
 d003244:	00834174 	movhi	r2,3333
 d003248:	10af7204 	addi	r2,r2,-16952
 d00324c:	003fbc06 	br	d003140 <strerror+0x258>
 d003250:	00834174 	movhi	r2,3333
 d003254:	10af7604 	addi	r2,r2,-16936
 d003258:	003fb906 	br	d003140 <strerror+0x258>
 d00325c:	00834174 	movhi	r2,3333
 d003260:	10af8604 	addi	r2,r2,-16872
 d003264:	003fb606 	br	d003140 <strerror+0x258>
 d003268:	00834174 	movhi	r2,3333
 d00326c:	10af8a04 	addi	r2,r2,-16856
 d003270:	003fb306 	br	d003140 <strerror+0x258>
 d003274:	00834174 	movhi	r2,3333
 d003278:	10af9804 	addi	r2,r2,-16800
 d00327c:	003fb006 	br	d003140 <strerror+0x258>
 d003280:	00834174 	movhi	r2,3333
 d003284:	10afa004 	addi	r2,r2,-16768
 d003288:	003fad06 	br	d003140 <strerror+0x258>
 d00328c:	00834174 	movhi	r2,3333
 d003290:	10afa504 	addi	r2,r2,-16748
 d003294:	003faa06 	br	d003140 <strerror+0x258>
 d003298:	00834174 	movhi	r2,3333
 d00329c:	10afab04 	addi	r2,r2,-16724
 d0032a0:	003fa706 	br	d003140 <strerror+0x258>
 d0032a4:	00834174 	movhi	r2,3333
 d0032a8:	10afaf04 	addi	r2,r2,-16708
 d0032ac:	003fa406 	br	d003140 <strerror+0x258>
 d0032b0:	00834174 	movhi	r2,3333
 d0032b4:	10afb804 	addi	r2,r2,-16672
 d0032b8:	003fa106 	br	d003140 <strerror+0x258>
 d0032bc:	00834174 	movhi	r2,3333
 d0032c0:	10afc204 	addi	r2,r2,-16632
 d0032c4:	003f9e06 	br	d003140 <strerror+0x258>
 d0032c8:	00834174 	movhi	r2,3333
 d0032cc:	10afc604 	addi	r2,r2,-16616
 d0032d0:	003f9b06 	br	d003140 <strerror+0x258>
 d0032d4:	00834174 	movhi	r2,3333
 d0032d8:	10afcc04 	addi	r2,r2,-16592
 d0032dc:	003f9806 	br	d003140 <strerror+0x258>
 d0032e0:	00834174 	movhi	r2,3333
 d0032e4:	10afd004 	addi	r2,r2,-16576
 d0032e8:	003f9506 	br	d003140 <strerror+0x258>
 d0032ec:	00834174 	movhi	r2,3333
 d0032f0:	10afd304 	addi	r2,r2,-16564
 d0032f4:	003f9206 	br	d003140 <strerror+0x258>
 d0032f8:	00834174 	movhi	r2,3333
 d0032fc:	10afd704 	addi	r2,r2,-16548
 d003300:	003f8f06 	br	d003140 <strerror+0x258>
 d003304:	00834174 	movhi	r2,3333
 d003308:	10afdc04 	addi	r2,r2,-16528
 d00330c:	003f8c06 	br	d003140 <strerror+0x258>
 d003310:	00834174 	movhi	r2,3333
 d003314:	10afe304 	addi	r2,r2,-16500
 d003318:	003f8906 	br	d003140 <strerror+0x258>
 d00331c:	00834174 	movhi	r2,3333
 d003320:	10afe804 	addi	r2,r2,-16480
 d003324:	003f8606 	br	d003140 <strerror+0x258>
 d003328:	00834174 	movhi	r2,3333
 d00332c:	10aff104 	addi	r2,r2,-16444
 d003330:	003f8306 	br	d003140 <strerror+0x258>
 d003334:	00834174 	movhi	r2,3333
 d003338:	10aff304 	addi	r2,r2,-16436
 d00333c:	003f8006 	br	d003140 <strerror+0x258>
 d003340:	00834174 	movhi	r2,3333
 d003344:	10aff704 	addi	r2,r2,-16420
 d003348:	003f7d06 	br	d003140 <strerror+0x258>
 d00334c:	00834174 	movhi	r2,3333
 d003350:	10affd04 	addi	r2,r2,-16396
 d003354:	003f7a06 	br	d003140 <strerror+0x258>
 d003358:	00834174 	movhi	r2,3333
 d00335c:	10b00204 	addi	r2,r2,-16376
 d003360:	003f7706 	br	d003140 <strerror+0x258>
 d003364:	00834174 	movhi	r2,3333
 d003368:	10b00a04 	addi	r2,r2,-16344
 d00336c:	003f7406 	br	d003140 <strerror+0x258>
 d003370:	00834174 	movhi	r2,3333
 d003374:	10b00d04 	addi	r2,r2,-16332
 d003378:	003f7106 	br	d003140 <strerror+0x258>
 d00337c:	00834174 	movhi	r2,3333
 d003380:	10b01204 	addi	r2,r2,-16312
 d003384:	003f6e06 	br	d003140 <strerror+0x258>
 d003388:	00834174 	movhi	r2,3333
 d00338c:	10b01804 	addi	r2,r2,-16288
 d003390:	003f6b06 	br	d003140 <strerror+0x258>
 d003394:	00834174 	movhi	r2,3333
 d003398:	10b01c04 	addi	r2,r2,-16272
 d00339c:	003f6806 	br	d003140 <strerror+0x258>
 d0033a0:	00834174 	movhi	r2,3333
 d0033a4:	10b02004 	addi	r2,r2,-16256
 d0033a8:	003f6506 	br	d003140 <strerror+0x258>
 d0033ac:	00834174 	movhi	r2,3333
 d0033b0:	10b02504 	addi	r2,r2,-16236
 d0033b4:	003f6206 	br	d003140 <strerror+0x258>
 d0033b8:	00834174 	movhi	r2,3333
 d0033bc:	10b02e04 	addi	r2,r2,-16200
 d0033c0:	003f5f06 	br	d003140 <strerror+0x258>
 d0033c4:	00834174 	movhi	r2,3333
 d0033c8:	10b03304 	addi	r2,r2,-16180
 d0033cc:	003f5c06 	br	d003140 <strerror+0x258>
 d0033d0:	00834174 	movhi	r2,3333
 d0033d4:	10b03604 	addi	r2,r2,-16168
 d0033d8:	003f5906 	br	d003140 <strerror+0x258>
 d0033dc:	00834174 	movhi	r2,3333
 d0033e0:	10b04004 	addi	r2,r2,-16128
 d0033e4:	003f5606 	br	d003140 <strerror+0x258>
 d0033e8:	00834174 	movhi	r2,3333
 d0033ec:	10b04a04 	addi	r2,r2,-16088
 d0033f0:	003f5306 	br	d003140 <strerror+0x258>
 d0033f4:	00834174 	movhi	r2,3333
 d0033f8:	10b05204 	addi	r2,r2,-16056
 d0033fc:	003f5006 	br	d003140 <strerror+0x258>
 d003400:	00834174 	movhi	r2,3333
 d003404:	10b06204 	addi	r2,r2,-15992
 d003408:	003f4d06 	br	d003140 <strerror+0x258>
 d00340c:	00834174 	movhi	r2,3333
 d003410:	10b06c04 	addi	r2,r2,-15952
 d003414:	003f4a06 	br	d003140 <strerror+0x258>
 d003418:	00834174 	movhi	r2,3333
 d00341c:	10b07304 	addi	r2,r2,-15924
 d003420:	003f4706 	br	d003140 <strerror+0x258>
 d003424:	00834174 	movhi	r2,3333
 d003428:	10b07704 	addi	r2,r2,-15908
 d00342c:	003f4406 	br	d003140 <strerror+0x258>
 d003430:	00834174 	movhi	r2,3333
 d003434:	10b07c04 	addi	r2,r2,-15888
 d003438:	003f4106 	br	d003140 <strerror+0x258>
 d00343c:	00834174 	movhi	r2,3333
 d003440:	10b08304 	addi	r2,r2,-15860
 d003444:	003f3e06 	br	d003140 <strerror+0x258>
 d003448:	00834174 	movhi	r2,3333
 d00344c:	10b0e304 	addi	r2,r2,-15476
 d003450:	003f3b06 	br	d003140 <strerror+0x258>
 d003454:	00834174 	movhi	r2,3333
 d003458:	10b08904 	addi	r2,r2,-15836
 d00345c:	003f3806 	br	d003140 <strerror+0x258>
 d003460:	00834174 	movhi	r2,3333
 d003464:	10b09004 	addi	r2,r2,-15808
 d003468:	003f3506 	br	d003140 <strerror+0x258>
 d00346c:	00834174 	movhi	r2,3333
 d003470:	10b09c04 	addi	r2,r2,-15760
 d003474:	003f3206 	br	d003140 <strerror+0x258>
 d003478:	00834174 	movhi	r2,3333
 d00347c:	10b0a404 	addi	r2,r2,-15728
 d003480:	003f2f06 	br	d003140 <strerror+0x258>
 d003484:	00834174 	movhi	r2,3333
 d003488:	10b0ac04 	addi	r2,r2,-15696
 d00348c:	003f2c06 	br	d003140 <strerror+0x258>
 d003490:	00834174 	movhi	r2,3333
 d003494:	10b0b204 	addi	r2,r2,-15672
 d003498:	003f2906 	br	d003140 <strerror+0x258>
 d00349c:	00834174 	movhi	r2,3333
 d0034a0:	10b0bb04 	addi	r2,r2,-15636
 d0034a4:	003f2606 	br	d003140 <strerror+0x258>
 d0034a8:	00834174 	movhi	r2,3333
 d0034ac:	10b0c004 	addi	r2,r2,-15616
 d0034b0:	003f2306 	br	d003140 <strerror+0x258>
 d0034b4:	00834174 	movhi	r2,3333
 d0034b8:	10b0c604 	addi	r2,r2,-15592
 d0034bc:	003f2006 	br	d003140 <strerror+0x258>
 d0034c0:	00834174 	movhi	r2,3333
 d0034c4:	10afeb04 	addi	r2,r2,-16468
 d0034c8:	003f1d06 	br	d003140 <strerror+0x258>
 d0034cc:	00834174 	movhi	r2,3333
 d0034d0:	10af8f04 	addi	r2,r2,-16836
 d0034d4:	003f1a06 	br	d003140 <strerror+0x258>
 d0034d8:	00834174 	movhi	r2,3333
 d0034dc:	10af0804 	addi	r2,r2,-17376
 d0034e0:	003f1706 	br	d003140 <strerror+0x258>
 d0034e4:	00834174 	movhi	r2,3333
 d0034e8:	10af7a04 	addi	r2,r2,-16920
 d0034ec:	003f1406 	br	d003140 <strerror+0x258>
 d0034f0:	00834174 	movhi	r2,3333
 d0034f4:	10afb304 	addi	r2,r2,-16692
 d0034f8:	003f1106 	br	d003140 <strerror+0x258>
 d0034fc:	00834174 	movhi	r2,3333
 d003500:	10af7e04 	addi	r2,r2,-16904
 d003504:	003f0e06 	br	d003140 <strerror+0x258>
 d003508:	00834174 	movhi	r2,3333
 d00350c:	10af3604 	addi	r2,r2,-17192
 d003510:	003f0b06 	br	d003140 <strerror+0x258>
 d003514:	00834174 	movhi	r2,3333
 d003518:	10af4404 	addi	r2,r2,-17136
 d00351c:	003f0806 	br	d003140 <strerror+0x258>
 d003520:	00834174 	movhi	r2,3333
 d003524:	10af0304 	addi	r2,r2,-17396
 d003528:	003f0506 	br	d003140 <strerror+0x258>
 d00352c:	00834174 	movhi	r2,3333
 d003530:	10b02904 	addi	r2,r2,-16220
 d003534:	003f0206 	br	d003140 <strerror+0x258>
 d003538:	00834174 	movhi	r2,3333
 d00353c:	10b0d504 	addi	r2,r2,-15532
 d003540:	003eff06 	br	d003140 <strerror+0x258>
 d003544:	00834174 	movhi	r2,3333
 d003548:	10b0dc04 	addi	r2,r2,-15504
 d00354c:	003efc06 	br	d003140 <strerror+0x258>
 d003550:	00834174 	movhi	r2,3333
 d003554:	10b0cf04 	addi	r2,r2,-15556
 d003558:	003ef906 	br	d003140 <strerror+0x258>

0d00355c <strlen>:
 d00355c:	208000cc 	andi	r2,r4,3
 d003560:	2011883a 	mov	r8,r4
 d003564:	1000161e 	bne	r2,zero,d0035c0 <strlen+0x64>
 d003568:	20c00017 	ldw	r3,0(r4)
 d00356c:	017fbff4 	movhi	r5,65279
 d003570:	297fbfc4 	addi	r5,r5,-257
 d003574:	01e02074 	movhi	r7,32897
 d003578:	39e02004 	addi	r7,r7,-32640
 d00357c:	1945883a 	add	r2,r3,r5
 d003580:	11c4703a 	and	r2,r2,r7
 d003584:	00c6303a 	nor	r3,zero,r3
 d003588:	1886703a 	and	r3,r3,r2
 d00358c:	18000c1e 	bne	r3,zero,d0035c0 <strlen+0x64>
 d003590:	280d883a 	mov	r6,r5
 d003594:	380b883a 	mov	r5,r7
 d003598:	21000104 	addi	r4,r4,4
 d00359c:	20800017 	ldw	r2,0(r4)
 d0035a0:	1187883a 	add	r3,r2,r6
 d0035a4:	1946703a 	and	r3,r3,r5
 d0035a8:	0084303a 	nor	r2,zero,r2
 d0035ac:	10c4703a 	and	r2,r2,r3
 d0035b0:	103ff926 	beq	r2,zero,d003598 <strlen+0x3c>
 d0035b4:	20800007 	ldb	r2,0(r4)
 d0035b8:	10000326 	beq	r2,zero,d0035c8 <strlen+0x6c>
 d0035bc:	21000044 	addi	r4,r4,1
 d0035c0:	20800007 	ldb	r2,0(r4)
 d0035c4:	103ffd1e 	bne	r2,zero,d0035bc <strlen+0x60>
 d0035c8:	2205c83a 	sub	r2,r4,r8
 d0035cc:	f800283a 	ret

0d0035d0 <_user_strerror>:
 d0035d0:	0005883a 	mov	r2,zero
 d0035d4:	f800283a 	ret

0d0035d8 <__sprint_r>:
 d0035d8:	30800217 	ldw	r2,8(r6)
 d0035dc:	defffe04 	addi	sp,sp,-8
 d0035e0:	dc000015 	stw	r16,0(sp)
 d0035e4:	dfc00115 	stw	ra,4(sp)
 d0035e8:	3021883a 	mov	r16,r6
 d0035ec:	0007883a 	mov	r3,zero
 d0035f0:	1000061e 	bne	r2,zero,d00360c <__sprint_r+0x34>
 d0035f4:	1805883a 	mov	r2,r3
 d0035f8:	30000115 	stw	zero,4(r6)
 d0035fc:	dfc00117 	ldw	ra,4(sp)
 d003600:	dc000017 	ldw	r16,0(sp)
 d003604:	dec00204 	addi	sp,sp,8
 d003608:	f800283a 	ret
 d00360c:	d0079d00 	call	d0079d0 <__sfvwrite_r>
 d003610:	1007883a 	mov	r3,r2
 d003614:	1805883a 	mov	r2,r3
 d003618:	80000115 	stw	zero,4(r16)
 d00361c:	80000215 	stw	zero,8(r16)
 d003620:	dfc00117 	ldw	ra,4(sp)
 d003624:	dc000017 	ldw	r16,0(sp)
 d003628:	dec00204 	addi	sp,sp,8
 d00362c:	f800283a 	ret

0d003630 <___vfprintf_internal_r>:
 d003630:	defea404 	addi	sp,sp,-1392
 d003634:	dd815815 	stw	r22,1376(sp)
 d003638:	dc015215 	stw	r16,1352(sp)
 d00363c:	d9c15115 	stw	r7,1348(sp)
 d003640:	dfc15b15 	stw	ra,1388(sp)
 d003644:	df015a15 	stw	fp,1384(sp)
 d003648:	ddc15915 	stw	r23,1380(sp)
 d00364c:	dd415715 	stw	r21,1372(sp)
 d003650:	dd015615 	stw	r20,1368(sp)
 d003654:	dcc15515 	stw	r19,1364(sp)
 d003658:	dc815415 	stw	r18,1360(sp)
 d00365c:	dc415315 	stw	r17,1356(sp)
 d003660:	282d883a 	mov	r22,r5
 d003664:	3021883a 	mov	r16,r6
 d003668:	d9014f15 	stw	r4,1340(sp)
 d00366c:	d007ff40 	call	d007ff4 <_localeconv_r>
 d003670:	10800017 	ldw	r2,0(r2)
 d003674:	d9c15117 	ldw	r7,1348(sp)
 d003678:	d8814915 	stw	r2,1316(sp)
 d00367c:	d8814f17 	ldw	r2,1340(sp)
 d003680:	10000226 	beq	r2,zero,d00368c <___vfprintf_internal_r+0x5c>
 d003684:	10800e17 	ldw	r2,56(r2)
 d003688:	10020d26 	beq	r2,zero,d003ec0 <___vfprintf_internal_r+0x890>
 d00368c:	b080030b 	ldhu	r2,12(r22)
 d003690:	1080020c 	andi	r2,r2,8
 d003694:	10020e26 	beq	r2,zero,d003ed0 <___vfprintf_internal_r+0x8a0>
 d003698:	b0800417 	ldw	r2,16(r22)
 d00369c:	10020c26 	beq	r2,zero,d003ed0 <___vfprintf_internal_r+0x8a0>
 d0036a0:	b200030b 	ldhu	r8,12(r22)
 d0036a4:	00800284 	movi	r2,10
 d0036a8:	40c0068c 	andi	r3,r8,26
 d0036ac:	18802f1e 	bne	r3,r2,d00376c <___vfprintf_internal_r+0x13c>
 d0036b0:	b080038f 	ldh	r2,14(r22)
 d0036b4:	10002d16 	blt	r2,zero,d00376c <___vfprintf_internal_r+0x13c>
 d0036b8:	b240038b 	ldhu	r9,14(r22)
 d0036bc:	b2800717 	ldw	r10,28(r22)
 d0036c0:	b2c00917 	ldw	r11,36(r22)
 d0036c4:	d9014f17 	ldw	r4,1340(sp)
 d0036c8:	dc402904 	addi	r17,sp,164
 d0036cc:	d8804004 	addi	r2,sp,256
 d0036d0:	00c10004 	movi	r3,1024
 d0036d4:	423fff4c 	andi	r8,r8,65533
 d0036d8:	800d883a 	mov	r6,r16
 d0036dc:	880b883a 	mov	r5,r17
 d0036e0:	da002c0d 	sth	r8,176(sp)
 d0036e4:	da402c8d 	sth	r9,178(sp)
 d0036e8:	da803015 	stw	r10,192(sp)
 d0036ec:	dac03215 	stw	r11,200(sp)
 d0036f0:	d8802d15 	stw	r2,180(sp)
 d0036f4:	d8c02e15 	stw	r3,184(sp)
 d0036f8:	d8802915 	stw	r2,164(sp)
 d0036fc:	d8c02b15 	stw	r3,172(sp)
 d003700:	d8002f15 	stw	zero,188(sp)
 d003704:	d0036300 	call	d003630 <___vfprintf_internal_r>
 d003708:	d8814b15 	stw	r2,1324(sp)
 d00370c:	10000416 	blt	r2,zero,d003720 <___vfprintf_internal_r+0xf0>
 d003710:	d9014f17 	ldw	r4,1340(sp)
 d003714:	880b883a 	mov	r5,r17
 d003718:	d006f540 	call	d006f54 <_fflush_r>
 d00371c:	1002321e 	bne	r2,zero,d003fe8 <___vfprintf_internal_r+0x9b8>
 d003720:	d8802c0b 	ldhu	r2,176(sp)
 d003724:	1080100c 	andi	r2,r2,64
 d003728:	10000326 	beq	r2,zero,d003738 <___vfprintf_internal_r+0x108>
 d00372c:	b080030b 	ldhu	r2,12(r22)
 d003730:	10801014 	ori	r2,r2,64
 d003734:	b080030d 	sth	r2,12(r22)
 d003738:	d8814b17 	ldw	r2,1324(sp)
 d00373c:	dfc15b17 	ldw	ra,1388(sp)
 d003740:	df015a17 	ldw	fp,1384(sp)
 d003744:	ddc15917 	ldw	r23,1380(sp)
 d003748:	dd815817 	ldw	r22,1376(sp)
 d00374c:	dd415717 	ldw	r21,1372(sp)
 d003750:	dd015617 	ldw	r20,1368(sp)
 d003754:	dcc15517 	ldw	r19,1364(sp)
